
main.exe:     file format elf64-x86-64


Disassembly of section .text:

0000000000005120 <_start>:
    5120:	f3 0f 1e fa          	endbr64 
    5124:	31 ed                	xor    %ebp,%ebp
    5126:	49 89 d1             	mov    %rdx,%r9
    5129:	5e                   	pop    %rsi
    512a:	48 89 e2             	mov    %rsp,%rdx
    512d:	48 83 e4 f0          	and    $0xfffffffffffffff0,%rsp
    5131:	50                   	push   %rax
    5132:	54                   	push   %rsp
    5133:	4c 8d 05 86 aa 00 00 	lea    0xaa86(%rip),%r8        # fbc0 <__libc_csu_fini>
    513a:	48 8d 0d 0f aa 00 00 	lea    0xaa0f(%rip),%rcx        # fb50 <__libc_csu_init>
    5141:	48 8d 3d 88 20 00 00 	lea    0x2088(%rip),%rdi        # 71d0 <main>
    5148:	ff 15 4a c2 00 00    	callq  *0xc24a(%rip)        # 11398 <__libc_start_main@GLIBC_2.2.5>
    514e:	f4                   	hlt    
    514f:	cc                   	int3   

0000000000005150 <deregister_tm_clones>:
    5150:	48 8d 3d 91 d2 00 00 	lea    0xd291(%rip),%rdi        # 123e8 <__TMC_END__>
    5157:	48 8d 05 8a d2 00 00 	lea    0xd28a(%rip),%rax        # 123e8 <__TMC_END__>
    515e:	48 39 f8             	cmp    %rdi,%rax
    5161:	74 15                	je     5178 <deregister_tm_clones+0x28>
    5163:	48 8b 05 3e c2 00 00 	mov    0xc23e(%rip),%rax        # 113a8 <_ITM_deregisterTMCloneTable@Base>
    516a:	48 85 c0             	test   %rax,%rax
    516d:	74 09                	je     5178 <deregister_tm_clones+0x28>
    516f:	ff e0                	jmpq   *%rax
    5171:	0f 1f 80 00 00 00 00 	nopl   0x0(%rax)
    5178:	c3                   	retq   
    5179:	0f 1f 80 00 00 00 00 	nopl   0x0(%rax)

0000000000005180 <register_tm_clones>:
    5180:	48 8d 3d 61 d2 00 00 	lea    0xd261(%rip),%rdi        # 123e8 <__TMC_END__>
    5187:	48 8d 35 5a d2 00 00 	lea    0xd25a(%rip),%rsi        # 123e8 <__TMC_END__>
    518e:	48 29 fe             	sub    %rdi,%rsi
    5191:	48 89 f0             	mov    %rsi,%rax
    5194:	48 c1 ee 3f          	shr    $0x3f,%rsi
    5198:	48 c1 f8 03          	sar    $0x3,%rax
    519c:	48 01 c6             	add    %rax,%rsi
    519f:	48 d1 fe             	sar    %rsi
    51a2:	74 14                	je     51b8 <register_tm_clones+0x38>
    51a4:	48 8b 05 05 c2 00 00 	mov    0xc205(%rip),%rax        # 113b0 <_ITM_registerTMCloneTable@Base>
    51ab:	48 85 c0             	test   %rax,%rax
    51ae:	74 08                	je     51b8 <register_tm_clones+0x38>
    51b0:	ff e0                	jmpq   *%rax
    51b2:	66 0f 1f 44 00 00    	nopw   0x0(%rax,%rax,1)
    51b8:	c3                   	retq   
    51b9:	0f 1f 80 00 00 00 00 	nopl   0x0(%rax)

00000000000051c0 <__do_global_dtors_aux>:
    51c0:	f3 0f 1e fa          	endbr64 
    51c4:	80 3d 65 d3 00 00 00 	cmpb   $0x0,0xd365(%rip)        # 12530 <completed.8061>
    51cb:	75 2b                	jne    51f8 <__do_global_dtors_aux+0x38>
    51cd:	55                   	push   %rbp
    51ce:	48 83 3d e2 c1 00 00 	cmpq   $0x0,0xc1e2(%rip)        # 113b8 <__cxa_finalize@GLIBC_2.2.5>
    51d5:	00 
    51d6:	48 89 e5             	mov    %rsp,%rbp
    51d9:	74 0c                	je     51e7 <__do_global_dtors_aux+0x27>
    51db:	48 8b 3d ee d1 00 00 	mov    0xd1ee(%rip),%rdi        # 123d0 <__dso_handle>
    51e2:	e8 29 aa 00 00       	callq  fc10 <__cxa_finalize@plt>
    51e7:	e8 64 ff ff ff       	callq  5150 <deregister_tm_clones>
    51ec:	c6 05 3d d3 00 00 01 	movb   $0x1,0xd33d(%rip)        # 12530 <completed.8061>
    51f3:	5d                   	pop    %rbp
    51f4:	c3                   	retq   
    51f5:	0f 1f 00             	nopl   (%rax)
    51f8:	c3                   	retq   
    51f9:	0f 1f 80 00 00 00 00 	nopl   0x0(%rax)

0000000000005200 <frame_dummy>:
    5200:	f3 0f 1e fa          	endbr64 
    5204:	e9 77 ff ff ff       	jmpq   5180 <register_tm_clones>
    5209:	cc                   	int3   
    520a:	cc                   	int3   
    520b:	cc                   	int3   
    520c:	cc                   	int3   
    520d:	cc                   	int3   
    520e:	cc                   	int3   
    520f:	cc                   	int3   

0000000000005210 <_Z5tdiffP7timevalS0_>:
    5210:	48 8b 06             	mov    (%rsi),%rax
    5213:	48 8b 4e 08          	mov    0x8(%rsi),%rcx
    5217:	48 2b 07             	sub    (%rdi),%rax
    521a:	f2 48 0f 2a c0       	cvtsi2sd %rax,%xmm0
    521f:	48 2b 4f 08          	sub    0x8(%rdi),%rcx
    5223:	f2 48 0f 2a c9       	cvtsi2sd %rcx,%xmm1
    5228:	f2 0f 59 0d 28 c7 ff 	mulsd  -0x38d8(%rip),%xmm1        # 1958 <_IO_stdin_used+0x58>
    522f:	ff 
    5230:	f2 0f 58 c8          	addsd  %xmm0,%xmm1
    5234:	0f 57 c0             	xorps  %xmm0,%xmm0
    5237:	f2 0f 5a c1          	cvtsd2ss %xmm1,%xmm0
    523b:	c3                   	retq   
    523c:	0f 1f 40 00          	nopl   0x0(%rax)

0000000000005240 <_Z8getColorhhh>:
    5240:	55                   	push   %rbp
    5241:	41 56                	push   %r14
    5243:	53                   	push   %rbx
    5244:	89 d3                	mov    %edx,%ebx
    5246:	89 f5                	mov    %esi,%ebp
    5248:	41 89 fe             	mov    %edi,%r14d
    524b:	bf 03 00 00 00       	mov    $0x3,%edi
    5250:	e8 cb a9 00 00       	callq  fc20 <malloc@plt>
    5255:	44 88 30             	mov    %r14b,(%rax)
    5258:	40 88 68 01          	mov    %bpl,0x1(%rax)
    525c:	88 58 02             	mov    %bl,0x2(%rax)
    525f:	5b                   	pop    %rbx
    5260:	41 5e                	pop    %r14
    5262:	5d                   	pop    %rbp
    5263:	c3                   	retq   
    5264:	66 66 66 2e 0f 1f 84 	data16 data16 nopw %cs:0x0(%rax,%rax,1)
    526b:	00 00 00 00 00 

0000000000005270 <_Z3getiii>:
    5270:	48 8b 05 c9 d2 00 00 	mov    0xd2c9(%rip),%rax        # 12540 <DATA>
    5277:	0f af 35 5a d1 00 00 	imul   0xd15a(%rip),%esi        # 123d8 <W>
    527e:	01 fe                	add    %edi,%esi
    5280:	8d 0c 76             	lea    (%rsi,%rsi,2),%ecx
    5283:	01 d1                	add    %edx,%ecx
    5285:	48 63 c9             	movslq %ecx,%rcx
    5288:	0f b6 04 08          	movzbl (%rax,%rcx,1),%eax
    528c:	c3                   	retq   
    528d:	0f 1f 00             	nopl   (%rax)

0000000000005290 <_Z6getPosii>:
    5290:	0f af 35 41 d1 00 00 	imul   0xd141(%rip),%esi        # 123d8 <W>
    5297:	01 fe                	add    %edi,%esi
    5299:	8d 04 76             	lea    (%rsi,%rsi,2),%eax
    529c:	48 98                	cltq   
    529e:	48 03 05 9b d2 00 00 	add    0xd29b(%rip),%rax        # 12540 <DATA>
    52a5:	c3                   	retq   
    52a6:	66 2e 0f 1f 84 00 00 	nopw   %cs:0x0(%rax,%rax,1)
    52ad:	00 00 00 

00000000000052b0 <_Z3setiihhh>:
    52b0:	48 8b 05 89 d2 00 00 	mov    0xd289(%rip),%rax        # 12540 <DATA>
    52b7:	44 8b 0d 1a d1 00 00 	mov    0xd11a(%rip),%r9d        # 123d8 <W>
    52be:	44 0f af ce          	imul   %esi,%r9d
    52c2:	41 01 f9             	add    %edi,%r9d
    52c5:	4d 63 c9             	movslq %r9d,%r9
    52c8:	4f 8d 0c 49          	lea    (%r9,%r9,2),%r9
    52cc:	42 88 14 08          	mov    %dl,(%rax,%r9,1)
    52d0:	48 8b 05 69 d2 00 00 	mov    0xd269(%rip),%rax        # 12540 <DATA>
    52d7:	8b 15 fb d0 00 00    	mov    0xd0fb(%rip),%edx        # 123d8 <W>
    52dd:	0f af d6             	imul   %esi,%edx
    52e0:	01 fa                	add    %edi,%edx
    52e2:	48 63 d2             	movslq %edx,%rdx
    52e5:	48 8d 14 52          	lea    (%rdx,%rdx,2),%rdx
    52e9:	88 4c 10 01          	mov    %cl,0x1(%rax,%rdx,1)
    52ed:	48 8b 05 4c d2 00 00 	mov    0xd24c(%rip),%rax        # 12540 <DATA>
    52f4:	0f af 35 dd d0 00 00 	imul   0xd0dd(%rip),%esi        # 123d8 <W>
    52fb:	01 fe                	add    %edi,%esi
    52fd:	48 63 ce             	movslq %esi,%rcx
    5300:	48 8d 0c 49          	lea    (%rcx,%rcx,2),%rcx
    5304:	44 88 44 08 02       	mov    %r8b,0x2(%rax,%rcx,1)
    5309:	c3                   	retq   
    530a:	66 0f 1f 44 00 00    	nopw   0x0(%rax,%rax,1)

0000000000005310 <_Z7refreshP8Autonoma>:
    5310:	8b 0d c2 d0 00 00    	mov    0xd0c2(%rip),%ecx        # 123d8 <W>
    5316:	8b 05 c0 d0 00 00    	mov    0xd0c0(%rip),%eax        # 123dc <H>
    531c:	0f af c1             	imul   %ecx,%eax
    531f:	85 c0                	test   %eax,%eax
    5321:	0f 8e 7f 01 00 00    	jle    54a6 <_Z7refreshP8Autonoma+0x196>
    5327:	55                   	push   %rbp
    5328:	41 57                	push   %r15
    532a:	41 56                	push   %r14
    532c:	41 55                	push   %r13
    532e:	41 54                	push   %r12
    5330:	53                   	push   %rbx
    5331:	48 81 ec c8 00 00 00 	sub    $0xc8,%rsp
    5338:	48 89 fb             	mov    %rdi,%rbx
    533b:	48 8d 47 48          	lea    0x48(%rdi),%rax
    533f:	48 89 44 24 30       	mov    %rax,0x30(%rsp)
    5344:	45 31 f6             	xor    %r14d,%r14d
    5347:	4c 8d a4 24 98 00 00 	lea    0x98(%rsp),%r12
    534e:	00 
    534f:	48 8d ac 24 b0 00 00 	lea    0xb0(%rsp),%rbp
    5356:	00 
    5357:	45 31 ed             	xor    %r13d,%r13d
    535a:	66 0f 1f 44 00 00    	nopw   0x0(%rax,%rax,1)
    5360:	44 89 e8             	mov    %r13d,%eax
    5363:	99                   	cltd   
    5364:	f7 f9                	idiv   %ecx
    5366:	0f 57 d2             	xorps  %xmm2,%xmm2
    5369:	f2 0f 2a d2          	cvtsi2sd %edx,%xmm2
    536d:	0f 57 c0             	xorps  %xmm0,%xmm0
    5370:	f2 0f 2a c1          	cvtsi2sd %ecx,%xmm0
    5374:	f2 0f 5e d0          	divsd  %xmm0,%xmm2
    5378:	f2 0f 58 15 d0 c5 ff 	addsd  -0x3a30(%rip),%xmm2        # 1950 <_IO_stdin_used+0x50>
    537f:	ff 
    5380:	f2 0f 10 43 18       	movsd  0x18(%rbx),%xmm0
    5385:	f2 0f 59 c2          	mulsd  %xmm2,%xmm0
    5389:	f2 0f 10 4b 20       	movsd  0x20(%rbx),%xmm1
    538e:	f2 0f 59 ca          	mulsd  %xmm2,%xmm1
    5392:	f2 0f 59 53 28       	mulsd  0x28(%rbx),%xmm2
    5397:	48 8d 7c 24 50       	lea    0x50(%rsp),%rdi
    539c:	e8 bf 8b 00 00       	callq  df60 <_ZN6VectorC1Eddd>
    53a1:	48 8b 44 24 60       	mov    0x60(%rsp),%rax
    53a6:	48 89 44 24 10       	mov    %rax,0x10(%rsp)
    53ab:	0f 10 44 24 50       	movups 0x50(%rsp),%xmm0
    53b0:	0f 11 04 24          	movups %xmm0,(%rsp)
    53b4:	4c 89 e7             	mov    %r12,%rdi
    53b7:	48 8b 74 24 30       	mov    0x30(%rsp),%rsi
    53bc:	e8 8f 8e 00 00       	callq  e250 <_ZN6VectorplES_>
    53c1:	44 89 e8             	mov    %r13d,%eax
    53c4:	99                   	cltd   
    53c5:	f7 3d 0d d0 00 00    	idivl  0xd00d(%rip)        # 123d8 <W>
    53cb:	0f 57 c0             	xorps  %xmm0,%xmm0
    53ce:	f2 0f 2a c0          	cvtsi2sd %eax,%xmm0
    53d2:	0f 57 c9             	xorps  %xmm1,%xmm1
    53d5:	f2 0f 2a 0d ff cf 00 	cvtsi2sdl 0xcfff(%rip),%xmm1        # 123dc <H>
    53dc:	00 
    53dd:	f2 0f 5e c1          	divsd  %xmm1,%xmm0
    53e1:	f2 0f 10 15 87 c5 ff 	movsd  -0x3a79(%rip),%xmm2        # 1970 <_IO_stdin_used+0x70>
    53e8:	ff 
    53e9:	f2 0f 5c d0          	subsd  %xmm0,%xmm2
    53ed:	f2 0f 10 43 30       	movsd  0x30(%rbx),%xmm0
    53f2:	f2 0f 59 c2          	mulsd  %xmm2,%xmm0
    53f6:	f2 0f 10 4b 38       	movsd  0x38(%rbx),%xmm1
    53fb:	f2 0f 59 ca          	mulsd  %xmm2,%xmm1
    53ff:	f2 0f 59 53 40       	mulsd  0x40(%rbx),%xmm2
    5404:	48 8d 7c 24 38       	lea    0x38(%rsp),%rdi
    5409:	e8 52 8b 00 00       	callq  df60 <_ZN6VectorC1Eddd>
    540e:	48 8b 44 24 48       	mov    0x48(%rsp),%rax
    5413:	48 89 44 24 10       	mov    %rax,0x10(%rsp)
    5418:	0f 10 44 24 38       	movups 0x38(%rsp),%xmm0
    541d:	0f 11 04 24          	movups %xmm0,(%rsp)
    5421:	48 89 ef             	mov    %rbp,%rdi
    5424:	4c 89 e6             	mov    %r12,%rsi
    5427:	e8 24 8e 00 00       	callq  e250 <_ZN6VectorplES_>
    542c:	4c 8b 3d 0d d1 00 00 	mov    0xd10d(%rip),%r15        # 12540 <DATA>
    5433:	4d 01 f7             	add    %r14,%r15
    5436:	48 8d 7c 24 68       	lea    0x68(%rsp),%rdi
    543b:	48 89 de             	mov    %rbx,%rsi
    543e:	48 89 ea             	mov    %rbp,%rdx
    5441:	e8 da 95 00 00       	callq  ea20 <_ZN3RayC1ERK6VectorS2_>
    5446:	0f 10 44 24 68       	movups 0x68(%rsp),%xmm0
    544b:	0f 10 4c 24 78       	movups 0x78(%rsp),%xmm1
    5450:	0f 10 94 24 88 00 00 	movups 0x88(%rsp),%xmm2
    5457:	00 
    5458:	0f 11 54 24 20       	movups %xmm2,0x20(%rsp)
    545d:	0f 11 4c 24 10       	movups %xmm1,0x10(%rsp)
    5462:	0f 11 04 24          	movups %xmm0,(%rsp)
    5466:	4c 89 ff             	mov    %r15,%rdi
    5469:	48 89 de             	mov    %rbx,%rsi
    546c:	31 d2                	xor    %edx,%edx
    546e:	e8 7d 60 00 00       	callq  b4f0 <_Z9calcColorPhP8Autonoma3Rayj>
    5473:	49 ff c5             	inc    %r13
    5476:	48 63 05 5f cf 00 00 	movslq 0xcf5f(%rip),%rax        # 123dc <H>
    547d:	48 63 0d 54 cf 00 00 	movslq 0xcf54(%rip),%rcx        # 123d8 <W>
    5484:	48 0f af c1          	imul   %rcx,%rax
    5488:	49 83 c6 03          	add    $0x3,%r14
    548c:	49 39 c5             	cmp    %rax,%r13
    548f:	0f 8c cb fe ff ff    	jl     5360 <_Z7refreshP8Autonoma+0x50>
    5495:	48 81 c4 c8 00 00 00 	add    $0xc8,%rsp
    549c:	5b                   	pop    %rbx
    549d:	41 5c                	pop    %r12
    549f:	41 5d                	pop    %r13
    54a1:	41 5e                	pop    %r14
    54a3:	41 5f                	pop    %r15
    54a5:	5d                   	pop    %rbp
    54a6:	c3                   	retq   
    54a7:	66 0f 1f 84 00 00 00 	nopw   0x0(%rax,%rax,1)
    54ae:	00 00 

00000000000054b0 <_Z9outputPPMP8_IO_FILE>:
    54b0:	53                   	push   %rbx
    54b1:	48 89 fb             	mov    %rdi,%rbx
    54b4:	8b 15 1e cf 00 00    	mov    0xcf1e(%rip),%edx        # 123d8 <W>
    54ba:	8b 0d 1c cf 00 00    	mov    0xcf1c(%rip),%ecx        # 123dc <H>
    54c0:	48 8d 35 d9 c9 ff ff 	lea    -0x3627(%rip),%rsi        # 1ea0 <_IO_stdin_used+0x5a0>
    54c7:	31 c0                	xor    %eax,%eax
    54c9:	e8 62 a7 00 00       	callq  fc30 <fprintf@plt>
    54ce:	48 8b 3d 6b d0 00 00 	mov    0xd06b(%rip),%rdi        # 12540 <DATA>
    54d5:	8b 05 fd ce 00 00    	mov    0xcefd(%rip),%eax        # 123d8 <W>
    54db:	0f af 05 fa ce 00 00 	imul   0xcefa(%rip),%eax        # 123dc <H>
    54e2:	8d 04 40             	lea    (%rax,%rax,2),%eax
    54e5:	48 63 d0             	movslq %eax,%rdx
    54e8:	be 01 00 00 00       	mov    $0x1,%esi
    54ed:	48 89 d9             	mov    %rbx,%rcx
    54f0:	5b                   	pop    %rbx
    54f1:	e9 4a a7 00 00       	jmpq   fc40 <fwrite@plt>
    54f6:	66 2e 0f 1f 84 00 00 	nopw   %cs:0x0(%rax,%rax,1)
    54fd:	00 00 00 

0000000000005500 <_Z9outputPPMPc>:
    5500:	53                   	push   %rbx
    5501:	48 8d 35 1b ca ff ff 	lea    -0x35e5(%rip),%rsi        # 1f23 <_IO_stdin_used+0x623>
    5508:	e8 43 a7 00 00       	callq  fc50 <fopen@plt>
    550d:	48 89 c3             	mov    %rax,%rbx
    5510:	8b 15 c2 ce 00 00    	mov    0xcec2(%rip),%edx        # 123d8 <W>
    5516:	8b 0d c0 ce 00 00    	mov    0xcec0(%rip),%ecx        # 123dc <H>
    551c:	48 8d 35 7d c9 ff ff 	lea    -0x3683(%rip),%rsi        # 1ea0 <_IO_stdin_used+0x5a0>
    5523:	48 89 c7             	mov    %rax,%rdi
    5526:	31 c0                	xor    %eax,%eax
    5528:	e8 03 a7 00 00       	callq  fc30 <fprintf@plt>
    552d:	48 8b 3d 0c d0 00 00 	mov    0xd00c(%rip),%rdi        # 12540 <DATA>
    5534:	8b 05 9e ce 00 00    	mov    0xce9e(%rip),%eax        # 123d8 <W>
    553a:	0f af 05 9b ce 00 00 	imul   0xce9b(%rip),%eax        # 123dc <H>
    5541:	8d 04 40             	lea    (%rax,%rax,2),%eax
    5544:	48 63 d0             	movslq %eax,%rdx
    5547:	be 01 00 00 00       	mov    $0x1,%esi
    554c:	48 89 d9             	mov    %rbx,%rcx
    554f:	e8 ec a6 00 00       	callq  fc40 <fwrite@plt>
    5554:	48 89 df             	mov    %rbx,%rdi
    5557:	5b                   	pop    %rbx
    5558:	e9 03 a7 00 00       	jmpq   fc60 <fclose@plt>
    555d:	0f 1f 00             	nopl   (%rax)

0000000000005560 <_Z6outputPc>:
    5560:	53                   	push   %rbx
    5561:	48 81 ec d0 07 00 00 	sub    $0x7d0,%rsp
    5568:	48 89 f9             	mov    %rdi,%rcx
    556b:	48 8d 15 a5 c4 ff ff 	lea    -0x3b5b(%rip),%rdx        # 1a17 <_IO_stdin_used+0x117>
    5572:	48 89 e3             	mov    %rsp,%rbx
    5575:	be d0 07 00 00       	mov    $0x7d0,%esi
    557a:	48 89 df             	mov    %rbx,%rdi
    557d:	31 c0                	xor    %eax,%eax
    557f:	e8 ec a6 00 00       	callq  fc70 <snprintf@plt>
    5584:	48 89 df             	mov    %rbx,%rdi
    5587:	e8 f4 a6 00 00       	callq  fc80 <puts@plt>
    558c:	48 8d 35 90 c9 ff ff 	lea    -0x3670(%rip),%rsi        # 1f23 <_IO_stdin_used+0x623>
    5593:	48 89 df             	mov    %rbx,%rdi
    5596:	e8 f5 a6 00 00       	callq  fc90 <popen@plt>
    559b:	48 89 c3             	mov    %rax,%rbx
    559e:	8b 15 34 ce 00 00    	mov    0xce34(%rip),%edx        # 123d8 <W>
    55a4:	8b 0d 32 ce 00 00    	mov    0xce32(%rip),%ecx        # 123dc <H>
    55aa:	48 8d 35 ef c8 ff ff 	lea    -0x3711(%rip),%rsi        # 1ea0 <_IO_stdin_used+0x5a0>
    55b1:	48 89 c7             	mov    %rax,%rdi
    55b4:	31 c0                	xor    %eax,%eax
    55b6:	e8 75 a6 00 00       	callq  fc30 <fprintf@plt>
    55bb:	48 8b 3d 7e cf 00 00 	mov    0xcf7e(%rip),%rdi        # 12540 <DATA>
    55c2:	8b 05 10 ce 00 00    	mov    0xce10(%rip),%eax        # 123d8 <W>
    55c8:	0f af 05 0d ce 00 00 	imul   0xce0d(%rip),%eax        # 123dc <H>
    55cf:	8d 04 40             	lea    (%rax,%rax,2),%eax
    55d2:	48 63 d0             	movslq %eax,%rdx
    55d5:	be 01 00 00 00       	mov    $0x1,%esi
    55da:	48 89 d9             	mov    %rbx,%rcx
    55dd:	e8 5e a6 00 00       	callq  fc40 <fwrite@plt>
    55e2:	48 89 df             	mov    %rbx,%rdi
    55e5:	48 81 c4 d0 07 00 00 	add    $0x7d0,%rsp
    55ec:	5b                   	pop    %rbx
    55ed:	e9 ae a6 00 00       	jmpq   fca0 <pclose@plt>
    55f2:	66 66 66 66 66 2e 0f 	data16 data16 data16 data16 nopw %cs:0x0(%rax,%rax,1)
    55f9:	1f 84 00 00 00 00 00 

0000000000005600 <_Z5streqPKcS0_>:
    5600:	50                   	push   %rax
    5601:	e8 aa a6 00 00       	callq  fcb0 <strcmp@plt>
    5606:	31 c9                	xor    %ecx,%ecx
    5608:	85 c0                	test   %eax,%eax
    560a:	0f 94 c1             	sete   %cl
    560d:	89 c8                	mov    %ecx,%eax
    560f:	59                   	pop    %rcx
    5610:	c3                   	retq   
    5611:	66 66 66 66 66 66 2e 	data16 data16 data16 data16 data16 nopw %cs:0x0(%rax,%rax,1)
    5618:	0f 1f 84 00 00 00 00 
    561f:	00 

0000000000005620 <_Z12parseTextureP8_IO_FILEb>:
    5620:	55                   	push   %rbp
    5621:	41 57                	push   %r15
    5623:	41 56                	push   %r14
    5625:	41 55                	push   %r13
    5627:	41 54                	push   %r12
    5629:	53                   	push   %rbx
    562a:	48 81 ec e8 04 00 00 	sub    $0x4e8,%rsp
    5631:	41 89 f4             	mov    %esi,%r12d
    5634:	48 89 fb             	mov    %rdi,%rbx
    5637:	48 8d 84 24 00 01 00 	lea    0x100(%rsp),%rax
    563e:	00 
    563f:	48 89 84 24 90 00 00 	mov    %rax,0x90(%rsp)
    5646:	00 
    5647:	48 c7 04 24 e8 03 00 	movq   $0x3e8,(%rsp)
    564e:	00 
    564f:	48 8d bc 24 90 00 00 	lea    0x90(%rsp),%rdi
    5656:	00 
    5657:	48 89 e6             	mov    %rsp,%rsi
    565a:	ba 0a 00 00 00       	mov    $0xa,%edx
    565f:	48 89 d9             	mov    %rbx,%rcx
    5662:	e8 59 a6 00 00       	callq  fcc0 <__getdelim@plt>
    5667:	83 f8 ff             	cmp    $0xffffffff,%eax
    566a:	74 50                	je     56bc <_Z12parseTextureP8_IO_FILEb+0x9c>
    566c:	48 bd 01 04 00 00 08 	movabs $0x800000401,%rbp
    5673:	00 00 00 
    5676:	4c 8d bc 24 90 00 00 	lea    0x90(%rsp),%r15
    567d:	00 
    567e:	49 89 e6             	mov    %rsp,%r14
    5681:	66 66 66 66 66 66 2e 	data16 data16 data16 data16 data16 nopw %cs:0x0(%rax,%rax,1)
    5688:	0f 1f 84 00 00 00 00 
    568f:	00 
    5690:	0f b6 84 24 00 01 00 	movzbl 0x100(%rsp),%eax
    5697:	00 
    5698:	48 83 f8 23          	cmp    $0x23,%rax
    569c:	77 34                	ja     56d2 <_Z12parseTextureP8_IO_FILEb+0xb2>
    569e:	48 0f a3 c5          	bt     %rax,%rbp
    56a2:	73 2e                	jae    56d2 <_Z12parseTextureP8_IO_FILEb+0xb2>
    56a4:	4c 89 ff             	mov    %r15,%rdi
    56a7:	4c 89 f6             	mov    %r14,%rsi
    56aa:	ba 0a 00 00 00       	mov    $0xa,%edx
    56af:	48 89 d9             	mov    %rbx,%rcx
    56b2:	e8 09 a6 00 00       	callq  fcc0 <__getdelim@plt>
    56b7:	83 f8 ff             	cmp    $0xffffffff,%eax
    56ba:	75 d4                	jne    5690 <_Z12parseTextureP8_IO_FILEb+0x70>
    56bc:	48 8d 3d 8b c3 ff ff 	lea    -0x3c75(%rip),%rdi        # 1a4e <_IO_stdin_used+0x14e>
    56c3:	e8 b8 a5 00 00       	callq  fc80 <puts@plt>
    56c8:	bf 01 00 00 00       	mov    $0x1,%edi
    56cd:	e8 fe a5 00 00       	callq  fcd0 <exit@plt>
    56d2:	48 8d 35 0f c4 ff ff 	lea    -0x3bf1(%rip),%rsi        # 1ae8 <_IO_stdin_used+0x1e8>
    56d9:	4c 8d bc 24 00 01 00 	lea    0x100(%rsp),%r15
    56e0:	00 
    56e1:	48 8d 54 24 40       	lea    0x40(%rsp),%rdx
    56e6:	4c 89 ff             	mov    %r15,%rdi
    56e9:	31 c0                	xor    %eax,%eax
    56eb:	e8 f0 a5 00 00       	callq  fce0 <__isoc99_sscanf@plt>
    56f0:	b8 6e 75 6c 6c       	mov    $0x6c6c756e,%eax
    56f5:	33 44 24 40          	xor    0x40(%rsp),%eax
    56f9:	0f b6 4c 24 44       	movzbl 0x44(%rsp),%ecx
    56fe:	09 c1                	or     %eax,%ecx
    5700:	0f 84 04 01 00 00    	je     580a <_Z12parseTextureP8_IO_FILEb+0x1ea>
    5706:	b8 63 6f 6c 6f       	mov    $0x6f6c6f63,%eax
    570b:	33 44 24 40          	xor    0x40(%rsp),%eax
    570f:	0f b7 4c 24 44       	movzwl 0x44(%rsp),%ecx
    5714:	83 f1 72             	xor    $0x72,%ecx
    5717:	09 c1                	or     %eax,%ecx
    5719:	0f 84 fc 00 00 00    	je     581b <_Z12parseTextureP8_IO_FILEb+0x1fb>
    571f:	b8 69 6d 61 67       	mov    $0x67616d69,%eax
    5724:	33 44 24 40          	xor    0x40(%rsp),%eax
    5728:	0f b7 4c 24 44       	movzwl 0x44(%rsp),%ecx
    572d:	83 f1 65             	xor    $0x65,%ecx
    5730:	09 c1                	or     %eax,%ecx
    5732:	0f 84 62 03 00 00    	je     5a9a <_Z12parseTextureP8_IO_FILEb+0x47a>
    5738:	48 b8 6d 61 73 6b 65 	movabs $0x6d6964656b73616d,%rax
    573f:	64 69 6d 
    5742:	48 33 44 24 40       	xor    0x40(%rsp),%rax
    5747:	8b 4c 24 48          	mov    0x48(%rsp),%ecx
    574b:	48 81 f1 61 67 65 00 	xor    $0x656761,%rcx
    5752:	48 09 c1             	or     %rax,%rcx
    5755:	0f 84 f5 03 00 00    	je     5b50 <_Z12parseTextureP8_IO_FILEb+0x530>
    575b:	48 b8 69 6e 6c 69 6e 	movabs $0x6d69656e696c6e69,%rax
    5762:	65 69 6d 
    5765:	48 33 44 24 40       	xor    0x40(%rsp),%rax
    576a:	8b 4c 24 48          	mov    0x48(%rsp),%ecx
    576e:	48 81 f1 61 67 65 00 	xor    $0x656761,%rcx
    5775:	48 09 c1             	or     %rax,%rcx
    5778:	0f 85 c6 04 00 00    	jne    5c44 <_Z12parseTextureP8_IO_FILEb+0x624>
    577e:	4c 89 7c 24 20       	mov    %r15,0x20(%rsp)
    5783:	48 c7 44 24 18 e8 03 	movq   $0x3e8,0x18(%rsp)
    578a:	00 00 
    578c:	48 8d 7c 24 20       	lea    0x20(%rsp),%rdi
    5791:	48 8d 74 24 18       	lea    0x18(%rsp),%rsi
    5796:	ba 0a 00 00 00       	mov    $0xa,%edx
    579b:	48 89 d9             	mov    %rbx,%rcx
    579e:	e8 1d a5 00 00       	callq  fcc0 <__getdelim@plt>
    57a3:	83 f8 ff             	cmp    $0xffffffff,%eax
    57a6:	74 4c                	je     57f4 <_Z12parseTextureP8_IO_FILEb+0x1d4>
    57a8:	4c 8d 74 24 20       	lea    0x20(%rsp),%r14
    57ad:	4c 8d 7c 24 18       	lea    0x18(%rsp),%r15
    57b2:	66 66 66 66 66 2e 0f 	data16 data16 data16 data16 nopw %cs:0x0(%rax,%rax,1)
    57b9:	1f 84 00 00 00 00 00 
    57c0:	0f b6 84 24 00 01 00 	movzbl 0x100(%rsp),%eax
    57c7:	00 
    57c8:	48 83 f8 23          	cmp    $0x23,%rax
    57cc:	0f 87 37 01 00 00    	ja     5909 <_Z12parseTextureP8_IO_FILEb+0x2e9>
    57d2:	48 0f a3 c5          	bt     %rax,%rbp
    57d6:	0f 83 2d 01 00 00    	jae    5909 <_Z12parseTextureP8_IO_FILEb+0x2e9>
    57dc:	4c 89 f7             	mov    %r14,%rdi
    57df:	4c 89 fe             	mov    %r15,%rsi
    57e2:	ba 0a 00 00 00       	mov    $0xa,%edx
    57e7:	48 89 d9             	mov    %rbx,%rcx
    57ea:	e8 d1 a4 00 00       	callq  fcc0 <__getdelim@plt>
    57ef:	83 f8 ff             	cmp    $0xffffffff,%eax
    57f2:	75 cc                	jne    57c0 <_Z12parseTextureP8_IO_FILEb+0x1a0>
    57f4:	48 8d 3d ff c8 ff ff 	lea    -0x3701(%rip),%rdi        # 20fa <_IO_stdin_used+0x7fa>
    57fb:	e8 80 a4 00 00       	callq  fc80 <puts@plt>
    5800:	bf 01 00 00 00       	mov    $0x1,%edi
    5805:	e8 c6 a4 00 00       	callq  fcd0 <exit@plt>
    580a:	45 84 e4             	test   %r12b,%r12b
    580d:	0f 84 1b 04 00 00    	je     5c2e <_Z12parseTextureP8_IO_FILEb+0x60e>
    5813:	45 31 f6             	xor    %r14d,%r14d
    5816:	e9 e8 03 00 00       	jmpq   5c03 <_Z12parseTextureP8_IO_FILEb+0x5e3>
    581b:	4c 89 7c 24 20       	mov    %r15,0x20(%rsp)
    5820:	48 c7 44 24 18 e8 03 	movq   $0x3e8,0x18(%rsp)
    5827:	00 00 
    5829:	48 8d 7c 24 20       	lea    0x20(%rsp),%rdi
    582e:	48 8d 74 24 18       	lea    0x18(%rsp),%rsi
    5833:	ba 0a 00 00 00       	mov    $0xa,%edx
    5838:	48 89 d9             	mov    %rbx,%rcx
    583b:	e8 80 a4 00 00       	callq  fcc0 <__getdelim@plt>
    5840:	83 f8 ff             	cmp    $0xffffffff,%eax
    5843:	74 37                	je     587c <_Z12parseTextureP8_IO_FILEb+0x25c>
    5845:	4c 8d 7c 24 20       	lea    0x20(%rsp),%r15
    584a:	4c 8d 64 24 18       	lea    0x18(%rsp),%r12
    584f:	90                   	nop
    5850:	0f b6 84 24 00 01 00 	movzbl 0x100(%rsp),%eax
    5857:	00 
    5858:	48 83 f8 23          	cmp    $0x23,%rax
    585c:	77 34                	ja     5892 <_Z12parseTextureP8_IO_FILEb+0x272>
    585e:	48 0f a3 c5          	bt     %rax,%rbp
    5862:	73 2e                	jae    5892 <_Z12parseTextureP8_IO_FILEb+0x272>
    5864:	4c 89 ff             	mov    %r15,%rdi
    5867:	4c 89 e6             	mov    %r12,%rsi
    586a:	ba 0a 00 00 00       	mov    $0xa,%edx
    586f:	48 89 d9             	mov    %rbx,%rcx
    5872:	e8 49 a4 00 00       	callq  fcc0 <__getdelim@plt>
    5877:	83 f8 ff             	cmp    $0xffffffff,%eax
    587a:	75 d4                	jne    5850 <_Z12parseTextureP8_IO_FILEb+0x230>
    587c:	48 8d 3d e1 c5 ff ff 	lea    -0x3a1f(%rip),%rdi        # 1e64 <_IO_stdin_used+0x564>
    5883:	e8 f8 a3 00 00       	callq  fc80 <puts@plt>
    5888:	bf 01 00 00 00       	mov    $0x1,%edi
    588d:	e8 3e a4 00 00       	callq  fcd0 <exit@plt>
    5892:	4c 8d 54 24 10       	lea    0x10(%rsp),%r10
    5897:	48 8d 35 87 c6 ff ff 	lea    -0x3979(%rip),%rsi        # 1f25 <_IO_stdin_used+0x625>
    589e:	48 8d bc 24 00 01 00 	lea    0x100(%rsp),%rdi
    58a5:	00 
    58a6:	48 8d 54 24 0c       	lea    0xc(%rsp),%rdx
    58ab:	48 8d 4c 24 08       	lea    0x8(%rsp),%rcx
    58b0:	4c 8d 44 24 2c       	lea    0x2c(%rsp),%r8
    58b5:	4c 8d 8c 24 90 00 00 	lea    0x90(%rsp),%r9
    58bc:	00 
    58bd:	31 c0                	xor    %eax,%eax
    58bf:	41 52                	push   %r10
    58c1:	41 56                	push   %r14
    58c3:	e8 18 a4 00 00       	callq  fce0 <__isoc99_sscanf@plt>
    58c8:	48 83 c4 10          	add    $0x10,%rsp
    58cc:	bf 28 00 00 00       	mov    $0x28,%edi
    58d1:	e8 1a a4 00 00       	callq  fcf0 <_Znwm@plt>
    58d6:	49 89 c6             	mov    %rax,%r14
    58d9:	0f b6 74 24 0c       	movzbl 0xc(%rsp),%esi
    58de:	0f b6 54 24 08       	movzbl 0x8(%rsp),%edx
    58e3:	0f b6 4c 24 2c       	movzbl 0x2c(%rsp),%ecx
    58e8:	f2 0f 10 84 24 90 00 	movsd  0x90(%rsp),%xmm0
    58ef:	00 00 
    58f1:	f2 0f 10 0c 24       	movsd  (%rsp),%xmm1
    58f6:	f2 0f 10 54 24 10    	movsd  0x10(%rsp),%xmm2
    58fc:	48 89 c7             	mov    %rax,%rdi
    58ff:	e8 5c 92 00 00       	callq  eb60 <_ZN12ColorTextureC1Ehhhddd>
    5904:	e9 fa 02 00 00       	jmpq   5c03 <_Z12parseTextureP8_IO_FILEb+0x5e3>
    5909:	48 83 ec 08          	sub    $0x8,%rsp
    590d:	4c 8d 54 24 18       	lea    0x18(%rsp),%r10
    5912:	48 8d 35 fb c9 ff ff 	lea    -0x3605(%rip),%rsi        # 2314 <_IO_stdin_used+0xa14>
    5919:	48 8d bc 24 08 01 00 	lea    0x108(%rsp),%rdi
    5920:	00 
    5921:	48 8d 54 24 14       	lea    0x14(%rsp),%rdx
    5926:	48 8d 4c 24 10       	lea    0x10(%rsp),%rcx
    592b:	4c 8d 84 24 98 00 00 	lea    0x98(%rsp),%r8
    5932:	00 
    5933:	4c 8d 4c 24 08       	lea    0x8(%rsp),%r9
    5938:	31 c0                	xor    %eax,%eax
    593a:	41 52                	push   %r10
    593c:	e8 9f a3 00 00       	callq  fce0 <__isoc99_sscanf@plt>
    5941:	48 83 c4 10          	add    $0x10,%rsp
    5945:	bf 30 00 00 00       	mov    $0x30,%edi
    594a:	e8 a1 a3 00 00       	callq  fcf0 <_Znwm@plt>
    594f:	8b 74 24 0c          	mov    0xc(%rsp),%esi
    5953:	8b 54 24 08          	mov    0x8(%rsp),%edx
    5957:	48 89 44 24 30       	mov    %rax,0x30(%rsp)
    595c:	48 89 c7             	mov    %rax,%rdi
    595f:	e8 9c 99 00 00       	callq  f300 <_ZN12ImageTextureC1Ejj>
    5964:	8b 4c 24 0c          	mov    0xc(%rsp),%ecx
    5968:	85 c9                	test   %ecx,%ecx
    596a:	4c 8d bc 24 00 01 00 	lea    0x100(%rsp),%r15
    5971:	00 
    5972:	0f 8e f2 00 00 00    	jle    5a6a <_Z12parseTextureP8_IO_FILEb+0x44a>
    5978:	8b 44 24 08          	mov    0x8(%rsp),%eax
    597c:	85 c0                	test   %eax,%eax
    597e:	0f 8e e6 00 00 00    	jle    5a6a <_Z12parseTextureP8_IO_FILEb+0x44a>
    5984:	4c 8d 64 24 20       	lea    0x20(%rsp),%r12
    5989:	4c 8d 6c 24 18       	lea    0x18(%rsp),%r13
    598e:	c7 44 24 28 00 00 00 	movl   $0x0,0x28(%rsp)
    5995:	00 
    5996:	eb 1e                	jmp    59b6 <_Z12parseTextureP8_IO_FILEb+0x396>
    5998:	0f 1f 84 00 00 00 00 	nopl   0x0(%rax,%rax,1)
    599f:	00 
    59a0:	8b 4c 24 0c          	mov    0xc(%rsp),%ecx
    59a4:	8b 54 24 28          	mov    0x28(%rsp),%edx
    59a8:	ff c2                	inc    %edx
    59aa:	89 54 24 28          	mov    %edx,0x28(%rsp)
    59ae:	39 ca                	cmp    %ecx,%edx
    59b0:	0f 8d b4 00 00 00    	jge    5a6a <_Z12parseTextureP8_IO_FILEb+0x44a>
    59b6:	85 c0                	test   %eax,%eax
    59b8:	7e ea                	jle    59a4 <_Z12parseTextureP8_IO_FILEb+0x384>
    59ba:	45 31 f6             	xor    %r14d,%r14d
    59bd:	eb 57                	jmp    5a16 <_Z12parseTextureP8_IO_FILEb+0x3f6>
    59bf:	90                   	nop
    59c0:	4c 8d bc 24 00 01 00 	lea    0x100(%rsp),%r15
    59c7:	00 
    59c8:	4c 89 ff             	mov    %r15,%rdi
    59cb:	48 8d 35 ca cb ff ff 	lea    -0x3436(%rip),%rsi        # 259c <_IO_stdin_used+0xc9c>
    59d2:	48 8d 54 24 2c       	lea    0x2c(%rsp),%rdx
    59d7:	48 8d 4c 24 3c       	lea    0x3c(%rsp),%rcx
    59dc:	4c 8d 44 24 38       	lea    0x38(%rsp),%r8
    59e1:	31 c0                	xor    %eax,%eax
    59e3:	e8 f8 a2 00 00       	callq  fce0 <__isoc99_sscanf@plt>
    59e8:	0f b6 4c 24 2c       	movzbl 0x2c(%rsp),%ecx
    59ed:	44 0f b6 44 24 3c    	movzbl 0x3c(%rsp),%r8d
    59f3:	44 0f b6 4c 24 38    	movzbl 0x38(%rsp),%r9d
    59f9:	48 8b 7c 24 30       	mov    0x30(%rsp),%rdi
    59fe:	8b 74 24 28          	mov    0x28(%rsp),%esi
    5a02:	44 89 f2             	mov    %r14d,%edx
    5a05:	e8 c6 98 00 00       	callq  f2d0 <_ZN12ImageTexture8setColorEjjhhh>
    5a0a:	41 ff c6             	inc    %r14d
    5a0d:	8b 44 24 08          	mov    0x8(%rsp),%eax
    5a11:	41 39 c6             	cmp    %eax,%r14d
    5a14:	7d 8a                	jge    59a0 <_Z12parseTextureP8_IO_FILEb+0x380>
    5a16:	4c 89 7c 24 20       	mov    %r15,0x20(%rsp)
    5a1b:	48 c7 44 24 18 e8 03 	movq   $0x3e8,0x18(%rsp)
    5a22:	00 00 
    5a24:	66 66 66 2e 0f 1f 84 	data16 data16 nopw %cs:0x0(%rax,%rax,1)
    5a2b:	00 00 00 00 00 
    5a30:	4c 89 e7             	mov    %r12,%rdi
    5a33:	4c 89 ee             	mov    %r13,%rsi
    5a36:	ba 0a 00 00 00       	mov    $0xa,%edx
    5a3b:	48 89 d9             	mov    %rbx,%rcx
    5a3e:	e8 7d a2 00 00       	callq  fcc0 <__getdelim@plt>
    5a43:	83 f8 ff             	cmp    $0xffffffff,%eax
    5a46:	0f 84 cc 01 00 00    	je     5c18 <_Z12parseTextureP8_IO_FILEb+0x5f8>
    5a4c:	0f b6 84 24 00 01 00 	movzbl 0x100(%rsp),%eax
    5a53:	00 
    5a54:	48 83 f8 23          	cmp    $0x23,%rax
    5a58:	0f 87 62 ff ff ff    	ja     59c0 <_Z12parseTextureP8_IO_FILEb+0x3a0>
    5a5e:	48 0f a3 c5          	bt     %rax,%rbp
    5a62:	0f 83 58 ff ff ff    	jae    59c0 <_Z12parseTextureP8_IO_FILEb+0x3a0>
    5a68:	eb c6                	jmp    5a30 <_Z12parseTextureP8_IO_FILEb+0x410>
    5a6a:	f2 0f 10 84 24 90 00 	movsd  0x90(%rsp),%xmm0
    5a71:	00 00 
    5a73:	4c 8b 74 24 30       	mov    0x30(%rsp),%r14
    5a78:	f2 41 0f 11 46 08    	movsd  %xmm0,0x8(%r14)
    5a7e:	f2 0f 10 04 24       	movsd  (%rsp),%xmm0
    5a83:	f2 41 0f 11 46 10    	movsd  %xmm0,0x10(%r14)
    5a89:	f2 0f 10 44 24 10    	movsd  0x10(%rsp),%xmm0
    5a8f:	f2 41 0f 11 46 18    	movsd  %xmm0,0x18(%r14)
    5a95:	e9 69 01 00 00       	jmpq   5c03 <_Z12parseTextureP8_IO_FILEb+0x5e3>
    5a9a:	4c 89 3c 24          	mov    %r15,(%rsp)
    5a9e:	48 c7 44 24 10 e8 03 	movq   $0x3e8,0x10(%rsp)
    5aa5:	00 00 
    5aa7:	48 89 e7             	mov    %rsp,%rdi
    5aaa:	48 8d 74 24 10       	lea    0x10(%rsp),%rsi
    5aaf:	ba 0a 00 00 00       	mov    $0xa,%edx
    5ab4:	48 89 d9             	mov    %rbx,%rcx
    5ab7:	e8 04 a2 00 00       	callq  fcc0 <__getdelim@plt>
    5abc:	83 f8 ff             	cmp    $0xffffffff,%eax
    5abf:	74 3b                	je     5afc <_Z12parseTextureP8_IO_FILEb+0x4dc>
    5ac1:	49 89 e6             	mov    %rsp,%r14
    5ac4:	4c 8d 7c 24 10       	lea    0x10(%rsp),%r15
    5ac9:	0f 1f 80 00 00 00 00 	nopl   0x0(%rax)
    5ad0:	0f b6 84 24 00 01 00 	movzbl 0x100(%rsp),%eax
    5ad7:	00 
    5ad8:	48 83 f8 23          	cmp    $0x23,%rax
    5adc:	77 34                	ja     5b12 <_Z12parseTextureP8_IO_FILEb+0x4f2>
    5ade:	48 0f a3 c5          	bt     %rax,%rbp
    5ae2:	73 2e                	jae    5b12 <_Z12parseTextureP8_IO_FILEb+0x4f2>
    5ae4:	4c 89 f7             	mov    %r14,%rdi
    5ae7:	4c 89 fe             	mov    %r15,%rsi
    5aea:	ba 0a 00 00 00       	mov    $0xa,%edx
    5aef:	48 89 d9             	mov    %rbx,%rcx
    5af2:	e8 c9 a1 00 00       	callq  fcc0 <__getdelim@plt>
    5af7:	83 f8 ff             	cmp    $0xffffffff,%eax
    5afa:	75 d4                	jne    5ad0 <_Z12parseTextureP8_IO_FILEb+0x4b0>
    5afc:	48 8d 3d 07 c2 ff ff 	lea    -0x3df9(%rip),%rdi        # 1d0a <_IO_stdin_used+0x40a>
    5b03:	e8 78 a1 00 00       	callq  fc80 <puts@plt>
    5b08:	bf 01 00 00 00       	mov    $0x1,%edi
    5b0d:	e8 be a1 00 00       	callq  fcd0 <exit@plt>
    5b12:	48 8d 35 36 ca ff ff 	lea    -0x35ca(%rip),%rsi        # 254f <_IO_stdin_used+0xc4f>
    5b19:	48 8d bc 24 00 01 00 	lea    0x100(%rsp),%rdi
    5b20:	00 
    5b21:	48 8d 9c 24 90 00 00 	lea    0x90(%rsp),%rbx
    5b28:	00 
    5b29:	48 89 da             	mov    %rbx,%rdx
    5b2c:	31 c0                	xor    %eax,%eax
    5b2e:	e8 ad a1 00 00       	callq  fce0 <__isoc99_sscanf@plt>
    5b33:	bf 30 00 00 00       	mov    $0x30,%edi
    5b38:	e8 b3 a1 00 00       	callq  fcf0 <_Znwm@plt>
    5b3d:	49 89 c6             	mov    %rax,%r14
    5b40:	48 89 c7             	mov    %rax,%rdi
    5b43:	48 89 de             	mov    %rbx,%rsi
    5b46:	e8 35 9d 00 00       	callq  f880 <_ZN12ImageTextureC1EPKc>
    5b4b:	e9 b3 00 00 00       	jmpq   5c03 <_Z12parseTextureP8_IO_FILEb+0x5e3>
    5b50:	4c 89 3c 24          	mov    %r15,(%rsp)
    5b54:	48 c7 44 24 10 e8 03 	movq   $0x3e8,0x10(%rsp)
    5b5b:	00 00 
    5b5d:	48 89 e7             	mov    %rsp,%rdi
    5b60:	48 8d 74 24 10       	lea    0x10(%rsp),%rsi
    5b65:	ba 0a 00 00 00       	mov    $0xa,%edx
    5b6a:	48 89 d9             	mov    %rbx,%rcx
    5b6d:	e8 4e a1 00 00       	callq  fcc0 <__getdelim@plt>
    5b72:	83 f8 ff             	cmp    $0xffffffff,%eax
    5b75:	74 35                	je     5bac <_Z12parseTextureP8_IO_FILEb+0x58c>
    5b77:	49 89 e6             	mov    %rsp,%r14
    5b7a:	4c 8d 7c 24 10       	lea    0x10(%rsp),%r15
    5b7f:	90                   	nop
    5b80:	0f b6 84 24 00 01 00 	movzbl 0x100(%rsp),%eax
    5b87:	00 
    5b88:	48 83 f8 23          	cmp    $0x23,%rax
    5b8c:	77 34                	ja     5bc2 <_Z12parseTextureP8_IO_FILEb+0x5a2>
    5b8e:	48 0f a3 c5          	bt     %rax,%rbp
    5b92:	73 2e                	jae    5bc2 <_Z12parseTextureP8_IO_FILEb+0x5a2>
    5b94:	4c 89 f7             	mov    %r14,%rdi
    5b97:	4c 89 fe             	mov    %r15,%rsi
    5b9a:	ba 0a 00 00 00       	mov    $0xa,%edx
    5b9f:	48 89 d9             	mov    %rbx,%rcx
    5ba2:	e8 19 a1 00 00       	callq  fcc0 <__getdelim@plt>
    5ba7:	83 f8 ff             	cmp    $0xffffffff,%eax
    5baa:	75 d4                	jne    5b80 <_Z12parseTextureP8_IO_FILEb+0x560>
    5bac:	48 8d 3d 57 c1 ff ff 	lea    -0x3ea9(%rip),%rdi        # 1d0a <_IO_stdin_used+0x40a>
    5bb3:	e8 c8 a0 00 00       	callq  fc80 <puts@plt>
    5bb8:	bf 01 00 00 00       	mov    $0x1,%edi
    5bbd:	e8 0e a1 00 00       	callq  fcd0 <exit@plt>
    5bc2:	48 8d 35 86 c9 ff ff 	lea    -0x367a(%rip),%rsi        # 254f <_IO_stdin_used+0xc4f>
    5bc9:	48 8d bc 24 00 01 00 	lea    0x100(%rsp),%rdi
    5bd0:	00 
    5bd1:	48 8d 9c 24 90 00 00 	lea    0x90(%rsp),%rbx
    5bd8:	00 
    5bd9:	48 89 da             	mov    %rbx,%rdx
    5bdc:	31 c0                	xor    %eax,%eax
    5bde:	e8 fd a0 00 00       	callq  fce0 <__isoc99_sscanf@plt>
    5be3:	bf 30 00 00 00       	mov    $0x30,%edi
    5be8:	e8 03 a1 00 00       	callq  fcf0 <_Znwm@plt>
    5bed:	49 89 c6             	mov    %rax,%r14
    5bf0:	48 89 c7             	mov    %rax,%rdi
    5bf3:	48 89 de             	mov    %rbx,%rsi
    5bf6:	e8 85 9c 00 00       	callq  f880 <_ZN12ImageTextureC1EPKc>
    5bfb:	4c 89 f7             	mov    %r14,%rdi
    5bfe:	e8 ad 90 00 00       	callq  ecb0 <_ZN12ImageTexture14maskImageAlphaEv>
    5c03:	4c 89 f0             	mov    %r14,%rax
    5c06:	48 81 c4 e8 04 00 00 	add    $0x4e8,%rsp
    5c0d:	5b                   	pop    %rbx
    5c0e:	41 5c                	pop    %r12
    5c10:	41 5d                	pop    %r13
    5c12:	41 5e                	pop    %r14
    5c14:	41 5f                	pop    %r15
    5c16:	5d                   	pop    %rbp
    5c17:	c3                   	retq   
    5c18:	48 8d 3d 2a c2 ff ff 	lea    -0x3dd6(%rip),%rdi        # 1e49 <_IO_stdin_used+0x549>
    5c1f:	e8 5c a0 00 00       	callq  fc80 <puts@plt>
    5c24:	bf 01 00 00 00       	mov    $0x1,%edi
    5c29:	e8 a2 a0 00 00       	callq  fcd0 <exit@plt>
    5c2e:	48 8d 3d 4f c8 ff ff 	lea    -0x37b1(%rip),%rdi        # 2484 <_IO_stdin_used+0xb84>
    5c35:	e8 46 a0 00 00       	callq  fc80 <puts@plt>
    5c3a:	bf 01 00 00 00       	mov    $0x1,%edi
    5c3f:	e8 8c a0 00 00       	callq  fcd0 <exit@plt>
    5c44:	48 8d 3d a7 c3 ff ff 	lea    -0x3c59(%rip),%rdi        # 1ff2 <_IO_stdin_used+0x6f2>
    5c4b:	48 8d 74 24 40       	lea    0x40(%rsp),%rsi
    5c50:	31 c0                	xor    %eax,%eax
    5c52:	e8 a9 a0 00 00       	callq  fd00 <printf@plt>
    5c57:	bf 01 00 00 00       	mov    $0x1,%edi
    5c5c:	e8 6f a0 00 00       	callq  fcd0 <exit@plt>
    5c61:	eb 17                	jmp    5c7a <_Z12parseTextureP8_IO_FILEb+0x65a>
    5c63:	eb 15                	jmp    5c7a <_Z12parseTextureP8_IO_FILEb+0x65a>
    5c65:	48 89 c3             	mov    %rax,%rbx
    5c68:	48 8b 7c 24 30       	mov    0x30(%rsp),%rdi
    5c6d:	e8 9e a0 00 00       	callq  fd10 <_ZdlPv@plt>
    5c72:	48 89 df             	mov    %rbx,%rdi
    5c75:	e8 a6 a0 00 00       	callq  fd20 <_Unwind_Resume@plt>
    5c7a:	48 89 c3             	mov    %rax,%rbx
    5c7d:	4c 89 f7             	mov    %r14,%rdi
    5c80:	e8 8b a0 00 00       	callq  fd10 <_ZdlPv@plt>
    5c85:	48 89 df             	mov    %rbx,%rdi
    5c88:	e8 93 a0 00 00       	callq  fd20 <_Unwind_Resume@plt>
    5c8d:	0f 1f 00             	nopl   (%rax)

0000000000005c90 <_Z10getVectorsP8_IO_FILEi>:
    5c90:	55                   	push   %rbp
    5c91:	41 57                	push   %r15
    5c93:	41 56                	push   %r14
    5c95:	41 55                	push   %r13
    5c97:	41 54                	push   %r12
    5c99:	53                   	push   %rbx
    5c9a:	48 83 ec 18          	sub    $0x18,%rsp
    5c9e:	89 f5                	mov    %esi,%ebp
    5ca0:	48 89 fb             	mov    %rdi,%rbx
    5ca3:	4c 63 fe             	movslq %esi,%r15
    5ca6:	4a 8d 04 fd 00 00 00 	lea    0x0(,%r15,8),%rax
    5cad:	00 
    5cae:	48 8d 3c 40          	lea    (%rax,%rax,2),%rdi
    5cb2:	e8 69 9f 00 00       	callq  fc20 <malloc@plt>
    5cb7:	49 89 c6             	mov    %rax,%r14
    5cba:	45 85 ff             	test   %r15d,%r15d
    5cbd:	7e 73                	jle    5d32 <_Z10getVectorsP8_IO_FILEi+0xa2>
    5cbf:	89 e8                	mov    %ebp,%eax
    5cc1:	48 c1 e0 03          	shl    $0x3,%rax
    5cc5:	4c 8d 3c 40          	lea    (%rax,%rax,2),%r15
    5cc9:	4c 8d 6c 24 10       	lea    0x10(%rsp),%r13
    5cce:	48 8d 6c 24 0c       	lea    0xc(%rsp),%rbp
    5cd3:	45 31 e4             	xor    %r12d,%r12d
    5cd6:	66 2e 0f 1f 84 00 00 	nopw   %cs:0x0(%rax,%rax,1)
    5cdd:	00 00 00 
    5ce0:	48 89 df             	mov    %rbx,%rdi
    5ce3:	48 8d 35 bb c5 ff ff 	lea    -0x3a45(%rip),%rsi        # 22a5 <_IO_stdin_used+0x9a5>
    5cea:	48 8d 54 24 14       	lea    0x14(%rsp),%rdx
    5cef:	4c 89 e9             	mov    %r13,%rcx
    5cf2:	49 89 e8             	mov    %rbp,%r8
    5cf5:	31 c0                	xor    %eax,%eax
    5cf7:	e8 34 a0 00 00       	callq  fd30 <__isoc99_fscanf@plt>
    5cfc:	83 f8 ff             	cmp    $0xffffffff,%eax
    5cff:	74 43                	je     5d44 <_Z10getVectorsP8_IO_FILEi+0xb4>
    5d01:	f3 0f 10 44 24 10    	movss  0x10(%rsp),%xmm0
    5d07:	f3 0f 10 4c 24 14    	movss  0x14(%rsp),%xmm1
    5d0d:	0f 14 c8             	unpcklps %xmm0,%xmm1
    5d10:	0f 5a c1             	cvtps2pd %xmm1,%xmm0
    5d13:	43 0f 11 04 26       	movups %xmm0,(%r14,%r12,1)
    5d18:	f3 0f 10 44 24 0c    	movss  0xc(%rsp),%xmm0
    5d1e:	f3 0f 5a c0          	cvtss2sd %xmm0,%xmm0
    5d22:	f2 43 0f 11 44 26 10 	movsd  %xmm0,0x10(%r14,%r12,1)
    5d29:	49 83 c4 18          	add    $0x18,%r12
    5d2d:	4d 39 e7             	cmp    %r12,%r15
    5d30:	75 ae                	jne    5ce0 <_Z10getVectorsP8_IO_FILEi+0x50>
    5d32:	4c 89 f0             	mov    %r14,%rax
    5d35:	48 83 c4 18          	add    $0x18,%rsp
    5d39:	5b                   	pop    %rbx
    5d3a:	41 5c                	pop    %r12
    5d3c:	41 5d                	pop    %r13
    5d3e:	41 5e                	pop    %r14
    5d40:	41 5f                	pop    %r15
    5d42:	5d                   	pop    %rbp
    5d43:	c3                   	retq   
    5d44:	48 8d 3d 1e c5 ff ff 	lea    -0x3ae2(%rip),%rdi        # 2269 <_IO_stdin_used+0x969>
    5d4b:	e8 30 9f 00 00       	callq  fc80 <puts@plt>
    5d50:	bf 01 00 00 00       	mov    $0x1,%edi
    5d55:	e8 76 9f 00 00       	callq  fcd0 <exit@plt>
    5d5a:	66 0f 1f 44 00 00    	nopw   0x0(%rax,%rax,1)

0000000000005d60 <_Z12getTrianglesP8_IO_FILEi>:
    5d60:	55                   	push   %rbp
    5d61:	41 57                	push   %r15
    5d63:	41 56                	push   %r14
    5d65:	41 55                	push   %r13
    5d67:	41 54                	push   %r12
    5d69:	53                   	push   %rbx
    5d6a:	50                   	push   %rax
    5d6b:	41 89 f7             	mov    %esi,%r15d
    5d6e:	48 89 fb             	mov    %rdi,%rbx
    5d71:	43 8d 2c 7f          	lea    (%r15,%r15,2),%ebp
    5d75:	48 63 fd             	movslq %ebp,%rdi
    5d78:	48 c1 e7 02          	shl    $0x2,%rdi
    5d7c:	e8 9f 9e 00 00       	callq  fc20 <malloc@plt>
    5d81:	49 89 c6             	mov    %rax,%r14
    5d84:	45 85 ff             	test   %r15d,%r15d
    5d87:	7e 43                	jle    5dcc <_Z12getTrianglesP8_IO_FILEi+0x6c>
    5d89:	4c 8d 3d 0c c8 ff ff 	lea    -0x37f4(%rip),%r15        # 259c <_IO_stdin_used+0xc9c>
    5d90:	45 31 ed             	xor    %r13d,%r13d
    5d93:	4d 89 f4             	mov    %r14,%r12
    5d96:	66 2e 0f 1f 84 00 00 	nopw   %cs:0x0(%rax,%rax,1)
    5d9d:	00 00 00 
    5da0:	49 8d 4c 24 04       	lea    0x4(%r12),%rcx
    5da5:	4d 8d 44 24 08       	lea    0x8(%r12),%r8
    5daa:	48 89 df             	mov    %rbx,%rdi
    5dad:	4c 89 fe             	mov    %r15,%rsi
    5db0:	4c 89 e2             	mov    %r12,%rdx
    5db3:	31 c0                	xor    %eax,%eax
    5db5:	e8 76 9f 00 00       	callq  fd30 <__isoc99_fscanf@plt>
    5dba:	83 f8 ff             	cmp    $0xffffffff,%eax
    5dbd:	74 1f                	je     5dde <_Z12getTrianglesP8_IO_FILEi+0x7e>
    5dbf:	49 83 c4 0c          	add    $0xc,%r12
    5dc3:	41 83 c5 03          	add    $0x3,%r13d
    5dc7:	44 39 ed             	cmp    %r13d,%ebp
    5dca:	7f d4                	jg     5da0 <_Z12getTrianglesP8_IO_FILEi+0x40>
    5dcc:	4c 89 f0             	mov    %r14,%rax
    5dcf:	48 83 c4 08          	add    $0x8,%rsp
    5dd3:	5b                   	pop    %rbx
    5dd4:	41 5c                	pop    %r12
    5dd6:	41 5d                	pop    %r13
    5dd8:	41 5e                	pop    %r14
    5dda:	41 5f                	pop    %r15
    5ddc:	5d                   	pop    %rbp
    5ddd:	c3                   	retq   
    5dde:	48 8d 3d 0b bc ff ff 	lea    -0x43f5(%rip),%rdi        # 19f0 <_IO_stdin_used+0xf0>
    5de5:	e8 96 9e 00 00       	callq  fc80 <puts@plt>
    5dea:	bf 01 00 00 00       	mov    $0x1,%edi
    5def:	e8 dc 9e 00 00       	callq  fcd0 <exit@plt>
    5df4:	66 66 66 2e 0f 1f 84 	data16 data16 nopw %cs:0x0(%rax,%rax,1)
    5dfb:	00 00 00 00 00 

0000000000005e00 <_Z12createInputsPKc>:
    5e00:	55                   	push   %rbp
    5e01:	41 57                	push   %r15
    5e03:	41 56                	push   %r14
    5e05:	41 55                	push   %r13
    5e07:	41 54                	push   %r12
    5e09:	53                   	push   %rbx
    5e0a:	48 81 ec 48 06 00 00 	sub    $0x648,%rsp
    5e11:	48 c7 84 24 88 00 00 	movq   $0x0,0x88(%rsp)
    5e18:	00 00 00 00 00 
    5e1d:	48 b8 00 00 00 00 00 	movabs $0x4000000000000000,%rax
    5e24:	00 00 40 
    5e27:	48 89 84 24 80 00 00 	mov    %rax,0x80(%rsp)
    5e2e:	00 
    5e2f:	48 c7 44 24 78 00 00 	movq   $0x0,0x78(%rsp)
    5e36:	00 00 
    5e38:	48 c7 44 24 70 00 00 	movq   $0x0,0x70(%rsp)
    5e3f:	00 00 
    5e41:	48 c7 44 24 68 00 00 	movq   $0x0,0x68(%rsp)
    5e48:	00 00 
    5e4a:	48 c7 44 24 60 00 00 	movq   $0x0,0x60(%rsp)
    5e51:	00 00 
    5e53:	48 85 ff             	test   %rdi,%rdi
    5e56:	0f 84 0c 01 00 00    	je     5f68 <_Z12createInputsPKc+0x168>
    5e5c:	48 8d 35 7e c2 ff ff 	lea    -0x3d82(%rip),%rsi        # 20e1 <_IO_stdin_used+0x7e1>
    5e63:	49 89 fe             	mov    %rdi,%r14
    5e66:	e8 e5 9d 00 00       	callq  fc50 <fopen@plt>
    5e6b:	48 85 c0             	test   %rax,%rax
    5e6e:	0f 84 61 0d 00 00    	je     6bd5 <_Z12createInputsPKc+0xdd5>
    5e74:	48 89 c3             	mov    %rax,%rbx
    5e77:	48 8d 84 24 60 02 00 	lea    0x260(%rsp),%rax
    5e7e:	00 
    5e7f:	48 89 84 24 a0 00 00 	mov    %rax,0xa0(%rsp)
    5e86:	00 
    5e87:	48 c7 84 24 10 01 00 	movq   $0x3e8,0x110(%rsp)
    5e8e:	00 e8 03 00 00 
    5e93:	48 8d bc 24 a0 00 00 	lea    0xa0(%rsp),%rdi
    5e9a:	00 
    5e9b:	48 8d b4 24 10 01 00 	lea    0x110(%rsp),%rsi
    5ea2:	00 
    5ea3:	ba 0a 00 00 00       	mov    $0xa,%edx
    5ea8:	48 89 d9             	mov    %rbx,%rcx
    5eab:	e8 10 9e 00 00       	callq  fcc0 <__getdelim@plt>
    5eb0:	83 f8 ff             	cmp    $0xffffffff,%eax
    5eb3:	74 47                	je     5efc <_Z12createInputsPKc+0xfc>
    5eb5:	49 bc 01 04 00 00 08 	movabs $0x800000401,%r12
    5ebc:	00 00 00 
    5ebf:	4c 8d b4 24 a0 00 00 	lea    0xa0(%rsp),%r14
    5ec6:	00 
    5ec7:	4c 8d bc 24 10 01 00 	lea    0x110(%rsp),%r15
    5ece:	00 
    5ecf:	90                   	nop
    5ed0:	0f b6 84 24 60 02 00 	movzbl 0x260(%rsp),%eax
    5ed7:	00 
    5ed8:	48 83 f8 23          	cmp    $0x23,%rax
    5edc:	77 34                	ja     5f12 <_Z12createInputsPKc+0x112>
    5ede:	49 0f a3 c4          	bt     %rax,%r12
    5ee2:	73 2e                	jae    5f12 <_Z12createInputsPKc+0x112>
    5ee4:	4c 89 f7             	mov    %r14,%rdi
    5ee7:	4c 89 fe             	mov    %r15,%rsi
    5eea:	ba 0a 00 00 00       	mov    $0xa,%edx
    5eef:	48 89 d9             	mov    %rbx,%rcx
    5ef2:	e8 c9 9d 00 00       	callq  fcc0 <__getdelim@plt>
    5ef7:	83 f8 ff             	cmp    $0xffffffff,%eax
    5efa:	75 d4                	jne    5ed0 <_Z12createInputsPKc+0xd0>
    5efc:	48 8d 3d 33 c2 ff ff 	lea    -0x3dcd(%rip),%rdi        # 2136 <_IO_stdin_used+0x836>
    5f03:	e8 78 9d 00 00       	callq  fc80 <puts@plt>
    5f08:	bf 01 00 00 00       	mov    $0x1,%edi
    5f0d:	e8 be 9d 00 00       	callq  fcd0 <exit@plt>
    5f12:	4c 8d 54 24 60       	lea    0x60(%rsp),%r10
    5f17:	4c 8d 5c 24 68       	lea    0x68(%rsp),%r11
    5f1c:	48 8d 35 f0 c5 ff ff 	lea    -0x3a10(%rip),%rsi        # 2513 <_IO_stdin_used+0xc13>
    5f23:	48 8d bc 24 60 02 00 	lea    0x260(%rsp),%rdi
    5f2a:	00 
    5f2b:	48 8d 94 24 88 00 00 	lea    0x88(%rsp),%rdx
    5f32:	00 
    5f33:	48 8d 8c 24 80 00 00 	lea    0x80(%rsp),%rcx
    5f3a:	00 
    5f3b:	4c 8d 44 24 78       	lea    0x78(%rsp),%r8
    5f40:	4c 8d 4c 24 70       	lea    0x70(%rsp),%r9
    5f45:	31 c0                	xor    %eax,%eax
    5f47:	41 52                	push   %r10
    5f49:	41 53                	push   %r11
    5f4b:	e8 90 9d 00 00       	callq  fce0 <__isoc99_sscanf@plt>
    5f50:	48 83 c4 10          	add    $0x10,%rsp
    5f54:	48 89 df             	mov    %rbx,%rdi
    5f57:	31 f6                	xor    %esi,%esi
    5f59:	e8 c2 f6 ff ff       	callq  5620 <_Z12parseTextureP8_IO_FILEb>
    5f5e:	49 89 c6             	mov    %rax,%r14
    5f61:	48 85 c0             	test   %rax,%rax
    5f64:	75 20                	jne    5f86 <_Z12createInputsPKc+0x186>
    5f66:	eb 02                	jmp    5f6a <_Z12createInputsPKc+0x16a>
    5f68:	31 db                	xor    %ebx,%ebx
    5f6a:	bf 30 00 00 00       	mov    $0x30,%edi
    5f6f:	e8 7c 9d 00 00       	callq  fcf0 <_Znwm@plt>
    5f74:	49 89 c6             	mov    %rax,%r14
    5f77:	48 8d 35 d5 c5 ff ff 	lea    -0x3a2b(%rip),%rsi        # 2553 <_IO_stdin_used+0xc53>
    5f7e:	48 89 c7             	mov    %rax,%rdi
    5f81:	e8 fa 98 00 00       	callq  f880 <_ZN12ImageTextureC1EPKc>
    5f86:	bf d8 00 00 00       	mov    $0xd8,%edi
    5f8b:	e8 60 9d 00 00       	callq  fcf0 <_Znwm@plt>
    5f90:	49 89 c7             	mov    %rax,%r15
    5f93:	f2 0f 10 84 24 88 00 	movsd  0x88(%rsp),%xmm0
    5f9a:	00 00 
    5f9c:	f2 0f 10 8c 24 80 00 	movsd  0x80(%rsp),%xmm1
    5fa3:	00 00 
    5fa5:	f2 0f 10 54 24 78    	movsd  0x78(%rsp),%xmm2
    5fab:	48 8d bc 24 a0 00 00 	lea    0xa0(%rsp),%rdi
    5fb2:	00 
    5fb3:	e8 a8 7f 00 00       	callq  df60 <_ZN6VectorC1Eddd>
    5fb8:	f2 0f 10 44 24 70    	movsd  0x70(%rsp),%xmm0
    5fbe:	f2 0f 10 4c 24 68    	movsd  0x68(%rsp),%xmm1
    5fc4:	f2 0f 10 54 24 60    	movsd  0x60(%rsp),%xmm2
    5fca:	48 8d bc 24 60 02 00 	lea    0x260(%rsp),%rdi
    5fd1:	00 
    5fd2:	48 8d b4 24 a0 00 00 	lea    0xa0(%rsp),%rsi
    5fd9:	00 
    5fda:	e8 c1 25 00 00       	callq  85a0 <_ZN6CameraC1ERK6Vectorddd>
    5fdf:	4c 8d a4 24 60 02 00 	lea    0x260(%rsp),%r12
    5fe6:	00 
    5fe7:	4c 89 ff             	mov    %r15,%rdi
    5fea:	4c 89 e6             	mov    %r12,%rsi
    5fed:	4c 89 f2             	mov    %r14,%rdx
    5ff0:	e8 7b 34 00 00       	callq  9470 <_ZN8AutonomaC1ERK6CameraP7Texture>
    5ff5:	48 85 db             	test   %rbx,%rbx
    5ff8:	74 40                	je     603a <_Z12createInputsPKc+0x23a>
    5ffa:	4c 89 7c 24 38       	mov    %r15,0x38(%rsp)
    5fff:	4c 89 a4 24 a0 00 00 	mov    %r12,0xa0(%rsp)
    6006:	00 
    6007:	48 c7 84 24 10 01 00 	movq   $0x3e8,0x110(%rsp)
    600e:	00 e8 03 00 00 
    6013:	48 8d bc 24 a0 00 00 	lea    0xa0(%rsp),%rdi
    601a:	00 
    601b:	48 8d b4 24 10 01 00 	lea    0x110(%rsp),%rsi
    6022:	00 
    6023:	ba 0a 00 00 00       	mov    $0xa,%edx
    6028:	48 89 d9             	mov    %rbx,%rcx
    602b:	e8 90 9c 00 00       	callq  fcc0 <__getdelim@plt>
    6030:	83 f8 ff             	cmp    $0xffffffff,%eax
    6033:	75 1a                	jne    604f <_Z12createInputsPKc+0x24f>
    6035:	4c 8b 7c 24 38       	mov    0x38(%rsp),%r15
    603a:	4c 89 f8             	mov    %r15,%rax
    603d:	48 81 c4 48 06 00 00 	add    $0x648,%rsp
    6044:	5b                   	pop    %rbx
    6045:	41 5c                	pop    %r12
    6047:	41 5d                	pop    %r13
    6049:	41 5e                	pop    %r14
    604b:	41 5f                	pop    %r15
    604d:	5d                   	pop    %rbp
    604e:	c3                   	retq   
    604f:	4c 8d 7c 24 40       	lea    0x40(%rsp),%r15
    6054:	48 8d 6c 24 28       	lea    0x28(%rsp),%rbp
    6059:	49 bd 01 04 00 00 08 	movabs $0x800000401,%r13
    6060:	00 00 00 
    6063:	4c 8d 74 24 50       	lea    0x50(%rsp),%r14
    6068:	eb 65                	jmp    60cf <_Z12createInputsPKc+0x2cf>
    606a:	48 8b 7c 24 38       	mov    0x38(%rsp),%rdi
    606f:	4c 89 fe             	mov    %r15,%rsi
    6072:	e8 79 34 00 00       	callq  94f0 <_ZN8Autonoma8addShapeEP5Shape>
    6077:	48 89 df             	mov    %rbx,%rdi
    607a:	be 01 00 00 00       	mov    $0x1,%esi
    607f:	e8 9c f5 ff ff       	callq  5620 <_Z12parseTextureP8_IO_FILEb>
    6084:	49 89 87 a0 00 00 00 	mov    %rax,0xa0(%r15)
    608b:	48 8d 6c 24 28       	lea    0x28(%rsp),%rbp
    6090:	4c 89 a4 24 a0 00 00 	mov    %r12,0xa0(%rsp)
    6097:	00 
    6098:	48 c7 84 24 10 01 00 	movq   $0x3e8,0x110(%rsp)
    609f:	00 e8 03 00 00 
    60a4:	48 8d bc 24 a0 00 00 	lea    0xa0(%rsp),%rdi
    60ab:	00 
    60ac:	48 8d b4 24 10 01 00 	lea    0x110(%rsp),%rsi
    60b3:	00 
    60b4:	ba 0a 00 00 00       	mov    $0xa,%edx
    60b9:	48 89 d9             	mov    %rbx,%rcx
    60bc:	e8 ff 9b 00 00       	callq  fcc0 <__getdelim@plt>
    60c1:	83 f8 ff             	cmp    $0xffffffff,%eax
    60c4:	4c 8d 7c 24 40       	lea    0x40(%rsp),%r15
    60c9:	0f 84 66 ff ff ff    	je     6035 <_Z12createInputsPKc+0x235>
    60cf:	0f b6 84 24 60 02 00 	movzbl 0x260(%rsp),%eax
    60d6:	00 
    60d7:	48 83 f8 23          	cmp    $0x23,%rax
    60db:	77 33                	ja     6110 <_Z12createInputsPKc+0x310>
    60dd:	49 0f a3 c5          	bt     %rax,%r13
    60e1:	73 2d                	jae    6110 <_Z12createInputsPKc+0x310>
    60e3:	48 8d bc 24 a0 00 00 	lea    0xa0(%rsp),%rdi
    60ea:	00 
    60eb:	48 8d b4 24 10 01 00 	lea    0x110(%rsp),%rsi
    60f2:	00 
    60f3:	ba 0a 00 00 00       	mov    $0xa,%edx
    60f8:	48 89 d9             	mov    %rbx,%rcx
    60fb:	e8 c0 9b 00 00       	callq  fcc0 <__getdelim@plt>
    6100:	83 f8 ff             	cmp    $0xffffffff,%eax
    6103:	75 ca                	jne    60cf <_Z12createInputsPKc+0x2cf>
    6105:	e9 2b ff ff ff       	jmpq   6035 <_Z12createInputsPKc+0x235>
    610a:	66 0f 1f 44 00 00    	nopw   0x0(%rax,%rax,1)
    6110:	4c 89 e7             	mov    %r12,%rdi
    6113:	48 8d 35 ce b9 ff ff 	lea    -0x4632(%rip),%rsi        # 1ae8 <_IO_stdin_used+0x1e8>
    611a:	48 8d 94 24 80 01 00 	lea    0x180(%rsp),%rdx
    6121:	00 
    6122:	31 c0                	xor    %eax,%eax
    6124:	e8 b7 9b 00 00       	callq  fce0 <__isoc99_sscanf@plt>
    6129:	8b 84 24 80 01 00 00 	mov    0x180(%rsp),%eax
    6130:	b9 6c 69 67 68       	mov    $0x6867696c,%ecx
    6135:	31 c8                	xor    %ecx,%eax
    6137:	0f b7 8c 24 84 01 00 	movzwl 0x184(%rsp),%ecx
    613e:	00 
    613f:	83 f1 74             	xor    $0x74,%ecx
    6142:	09 c1                	or     %eax,%ecx
    6144:	0f 84 a2 00 00 00    	je     61ec <_Z12createInputsPKc+0x3ec>
    614a:	8b 84 24 80 01 00 00 	mov    0x180(%rsp),%eax
    6151:	b9 70 6c 61 6e       	mov    $0x6e616c70,%ecx
    6156:	31 c8                	xor    %ecx,%eax
    6158:	0f b7 8c 24 84 01 00 	movzwl 0x184(%rsp),%ecx
    615f:	00 
    6160:	83 f1 65             	xor    $0x65,%ecx
    6163:	09 c1                	or     %eax,%ecx
    6165:	0f 84 86 01 00 00    	je     62f1 <_Z12createInputsPKc+0x4f1>
    616b:	8b 84 24 80 01 00 00 	mov    0x180(%rsp),%eax
    6172:	b9 64 69 73 6b       	mov    $0x6b736964,%ecx
    6177:	31 c8                	xor    %ecx,%eax
    6179:	0f b6 8c 24 84 01 00 	movzbl 0x184(%rsp),%ecx
    6180:	00 
    6181:	09 c1                	or     %eax,%ecx
    6183:	0f 84 59 02 00 00    	je     63e2 <_Z12createInputsPKc+0x5e2>
    6189:	81 bc 24 80 01 00 00 	cmpl   $0x786f62,0x180(%rsp)
    6190:	62 6f 78 00 
    6194:	0f 85 38 03 00 00    	jne    64d2 <_Z12createInputsPKc+0x6d2>
    619a:	4c 89 64 24 08       	mov    %r12,0x8(%rsp)
    619f:	48 c7 44 24 50 e8 03 	movq   $0x3e8,0x50(%rsp)
    61a6:	00 00 
    61a8:	0f 1f 84 00 00 00 00 	nopl   0x0(%rax,%rax,1)
    61af:	00 
    61b0:	48 8d 7c 24 08       	lea    0x8(%rsp),%rdi
    61b5:	4c 89 f6             	mov    %r14,%rsi
    61b8:	ba 0a 00 00 00       	mov    $0xa,%edx
    61bd:	48 89 d9             	mov    %rbx,%rcx
    61c0:	e8 fb 9a 00 00       	callq  fcc0 <__getdelim@plt>
    61c5:	83 f8 ff             	cmp    $0xffffffff,%eax
    61c8:	0f 84 af 09 00 00    	je     6b7d <_Z12createInputsPKc+0xd7d>
    61ce:	0f b6 84 24 60 02 00 	movzbl 0x260(%rsp),%eax
    61d5:	00 
    61d6:	48 83 f8 23          	cmp    $0x23,%rax
    61da:	0f 87 ae 03 00 00    	ja     658e <_Z12createInputsPKc+0x78e>
    61e0:	49 0f a3 c5          	bt     %rax,%r13
    61e4:	0f 83 a4 03 00 00    	jae    658e <_Z12createInputsPKc+0x78e>
    61ea:	eb c4                	jmp    61b0 <_Z12createInputsPKc+0x3b0>
    61ec:	4c 89 64 24 40       	mov    %r12,0x40(%rsp)
    61f1:	48 c7 44 24 28 e8 03 	movq   $0x3e8,0x28(%rsp)
    61f8:	00 00 
    61fa:	66 0f 1f 44 00 00    	nopw   0x0(%rax,%rax,1)
    6200:	4c 89 ff             	mov    %r15,%rdi
    6203:	48 89 ee             	mov    %rbp,%rsi
    6206:	ba 0a 00 00 00       	mov    $0xa,%edx
    620b:	48 89 d9             	mov    %rbx,%rcx
    620e:	e8 ad 9a 00 00       	callq  fcc0 <__getdelim@plt>
    6213:	83 f8 ff             	cmp    $0xffffffff,%eax
    6216:	0f 84 1f 09 00 00    	je     6b3b <_Z12createInputsPKc+0xd3b>
    621c:	0f b6 84 24 60 02 00 	movzbl 0x260(%rsp),%eax
    6223:	00 
    6224:	48 83 f8 23          	cmp    $0x23,%rax
    6228:	77 08                	ja     6232 <_Z12createInputsPKc+0x432>
    622a:	49 0f a3 c5          	bt     %rax,%r13
    622e:	73 02                	jae    6232 <_Z12createInputsPKc+0x432>
    6230:	eb ce                	jmp    6200 <_Z12createInputsPKc+0x400>
    6232:	4c 89 e7             	mov    %r12,%rdi
    6235:	48 8d 35 5c b7 ff ff 	lea    -0x48a4(%rip),%rsi        # 1998 <_IO_stdin_used+0x98>
    623c:	48 8d 94 24 a0 00 00 	lea    0xa0(%rsp),%rdx
    6243:	00 
    6244:	48 8d 8c 24 10 01 00 	lea    0x110(%rsp),%rcx
    624b:	00 
    624c:	4c 8d 44 24 30       	lea    0x30(%rsp),%r8
    6251:	4c 8d 4c 24 20       	lea    0x20(%rsp),%r9
    6256:	31 c0                	xor    %eax,%eax
    6258:	4c 8d 54 24 10       	lea    0x10(%rsp),%r10
    625d:	41 52                	push   %r10
    625f:	4c 8d 54 24 20       	lea    0x20(%rsp),%r10
    6264:	41 52                	push   %r10
    6266:	e8 75 9a 00 00       	callq  fce0 <__isoc99_sscanf@plt>
    626b:	48 83 c4 10          	add    $0x10,%rsp
    626f:	bf 20 00 00 00       	mov    $0x20,%edi
    6274:	e8 77 9a 00 00       	callq  fcf0 <_Znwm@plt>
    6279:	49 89 c7             	mov    %rax,%r15
    627c:	f2 0f 10 84 24 a0 00 	movsd  0xa0(%rsp),%xmm0
    6283:	00 00 
    6285:	f2 0f 10 8c 24 10 01 	movsd  0x110(%rsp),%xmm1
    628c:	00 00 
    628e:	f2 0f 10 54 24 30    	movsd  0x30(%rsp),%xmm2
    6294:	4c 89 e7             	mov    %r12,%rdi
    6297:	e8 c4 7c 00 00       	callq  df60 <_ZN6VectorC1Eddd>
    629c:	0f b6 6c 24 20       	movzbl 0x20(%rsp),%ebp
    62a1:	44 0f b6 64 24 18    	movzbl 0x18(%rsp),%r12d
    62a7:	0f b6 44 24 10       	movzbl 0x10(%rsp),%eax
    62ac:	88 44 24 48          	mov    %al,0x48(%rsp)
    62b0:	bf 03 00 00 00       	mov    $0x3,%edi
    62b5:	e8 66 99 00 00       	callq  fc20 <malloc@plt>
    62ba:	40 88 28             	mov    %bpl,(%rax)
    62bd:	44 88 60 01          	mov    %r12b,0x1(%rax)
    62c1:	4c 8d a4 24 60 02 00 	lea    0x260(%rsp),%r12
    62c8:	00 
    62c9:	0f b6 4c 24 48       	movzbl 0x48(%rsp),%ecx
    62ce:	88 48 02             	mov    %cl,0x2(%rax)
    62d1:	4c 89 ff             	mov    %r15,%rdi
    62d4:	4c 89 e6             	mov    %r12,%rsi
    62d7:	48 89 c2             	mov    %rax,%rdx
    62da:	e8 31 30 00 00       	callq  9310 <_ZN5LightC1ERK6VectorPh>
    62df:	48 8b 7c 24 38       	mov    0x38(%rsp),%rdi
    62e4:	4c 89 fe             	mov    %r15,%rsi
    62e7:	e8 c4 33 00 00       	callq  96b0 <_ZN8Autonoma8addLightEP5Light>
    62ec:	e9 9a fd ff ff       	jmpq   608b <_Z12createInputsPKc+0x28b>
    62f1:	4c 89 64 24 08       	mov    %r12,0x8(%rsp)
    62f6:	48 c7 44 24 50 e8 03 	movq   $0x3e8,0x50(%rsp)
    62fd:	00 00 
    62ff:	90                   	nop
    6300:	48 8d 7c 24 08       	lea    0x8(%rsp),%rdi
    6305:	4c 89 f6             	mov    %r14,%rsi
    6308:	ba 0a 00 00 00       	mov    $0xa,%edx
    630d:	48 89 d9             	mov    %rbx,%rcx
    6310:	e8 ab 99 00 00       	callq  fcc0 <__getdelim@plt>
    6315:	83 f8 ff             	cmp    $0xffffffff,%eax
    6318:	0f 84 33 08 00 00    	je     6b51 <_Z12createInputsPKc+0xd51>
    631e:	0f b6 84 24 60 02 00 	movzbl 0x260(%rsp),%eax
    6325:	00 
    6326:	48 83 f8 23          	cmp    $0x23,%rax
    632a:	77 08                	ja     6334 <_Z12createInputsPKc+0x534>
    632c:	49 0f a3 c5          	bt     %rax,%r13
    6330:	73 02                	jae    6334 <_Z12createInputsPKc+0x534>
    6332:	eb cc                	jmp    6300 <_Z12createInputsPKc+0x500>
    6334:	4c 89 e7             	mov    %r12,%rdi
    6337:	48 8d 35 43 be ff ff 	lea    -0x41bd(%rip),%rsi        # 2181 <_IO_stdin_used+0x881>
    633e:	48 8d 94 24 a0 00 00 	lea    0xa0(%rsp),%rdx
    6345:	00 
    6346:	48 8d 8c 24 10 01 00 	lea    0x110(%rsp),%rcx
    634d:	00 
    634e:	4c 8d 44 24 30       	lea    0x30(%rsp),%r8
    6353:	4d 89 f9             	mov    %r15,%r9
    6356:	31 c0                	xor    %eax,%eax
    6358:	4c 8d 54 24 10       	lea    0x10(%rsp),%r10
    635d:	41 52                	push   %r10
    635f:	4c 8d 54 24 20       	lea    0x20(%rsp),%r10
    6364:	41 52                	push   %r10
    6366:	4c 8d 54 24 30       	lea    0x30(%rsp),%r10
    636b:	41 52                	push   %r10
    636d:	55                   	push   %rbp
    636e:	e8 6d 99 00 00       	callq  fce0 <__isoc99_sscanf@plt>
    6373:	48 83 c4 20          	add    $0x20,%rsp
    6377:	48 89 df             	mov    %rbx,%rdi
    637a:	31 f6                	xor    %esi,%esi
    637c:	e8 9f f2 ff ff       	callq  5620 <_Z12parseTextureP8_IO_FILEb>
    6381:	48 89 c5             	mov    %rax,%rbp
    6384:	bf f8 00 00 00       	mov    $0xf8,%edi
    6389:	e8 62 99 00 00       	callq  fcf0 <_Znwm@plt>
    638e:	49 89 c7             	mov    %rax,%r15
    6391:	f2 0f 10 84 24 a0 00 	movsd  0xa0(%rsp),%xmm0
    6398:	00 00 
    639a:	f2 0f 10 8c 24 10 01 	movsd  0x110(%rsp),%xmm1
    63a1:	00 00 
    63a3:	f2 0f 10 54 24 30    	movsd  0x30(%rsp),%xmm2
    63a9:	4c 89 e7             	mov    %r12,%rdi
    63ac:	e8 af 7b 00 00       	callq  df60 <_ZN6VectorC1Eddd>
    63b1:	f2 0f 10 44 24 40    	movsd  0x40(%rsp),%xmm0
    63b7:	f2 0f 10 4c 24 28    	movsd  0x28(%rsp),%xmm1
    63bd:	f2 0f 10 54 24 20    	movsd  0x20(%rsp),%xmm2
    63c3:	f2 0f 10 5c 24 18    	movsd  0x18(%rsp),%xmm3
    63c9:	f2 0f 10 64 24 10    	movsd  0x10(%rsp),%xmm4
    63cf:	4c 89 ff             	mov    %r15,%rdi
    63d2:	4c 89 e6             	mov    %r12,%rsi
    63d5:	48 89 ea             	mov    %rbp,%rdx
    63d8:	e8 c3 38 00 00       	callq  9ca0 <_ZN5PlaneC1ERK6VectorP7Textureddddd>
    63dd:	e9 88 fc ff ff       	jmpq   606a <_Z12createInputsPKc+0x26a>
    63e2:	4c 89 64 24 08       	mov    %r12,0x8(%rsp)
    63e7:	48 c7 44 24 50 e8 03 	movq   $0x3e8,0x50(%rsp)
    63ee:	00 00 
    63f0:	48 8d 7c 24 08       	lea    0x8(%rsp),%rdi
    63f5:	4c 89 f6             	mov    %r14,%rsi
    63f8:	ba 0a 00 00 00       	mov    $0xa,%edx
    63fd:	48 89 d9             	mov    %rbx,%rcx
    6400:	e8 bb 98 00 00       	callq  fcc0 <__getdelim@plt>
    6405:	83 f8 ff             	cmp    $0xffffffff,%eax
    6408:	0f 84 59 07 00 00    	je     6b67 <_Z12createInputsPKc+0xd67>
    640e:	0f b6 84 24 60 02 00 	movzbl 0x260(%rsp),%eax
    6415:	00 
    6416:	48 83 f8 23          	cmp    $0x23,%rax
    641a:	77 08                	ja     6424 <_Z12createInputsPKc+0x624>
    641c:	49 0f a3 c5          	bt     %rax,%r13
    6420:	73 02                	jae    6424 <_Z12createInputsPKc+0x624>
    6422:	eb cc                	jmp    63f0 <_Z12createInputsPKc+0x5f0>
    6424:	4c 89 e7             	mov    %r12,%rdi
    6427:	48 8d 35 53 bd ff ff 	lea    -0x42ad(%rip),%rsi        # 2181 <_IO_stdin_used+0x881>
    642e:	48 8d 94 24 a0 00 00 	lea    0xa0(%rsp),%rdx
    6435:	00 
    6436:	48 8d 8c 24 10 01 00 	lea    0x110(%rsp),%rcx
    643d:	00 
    643e:	4c 8d 44 24 30       	lea    0x30(%rsp),%r8
    6443:	4d 89 f9             	mov    %r15,%r9
    6446:	31 c0                	xor    %eax,%eax
    6448:	4c 8d 54 24 10       	lea    0x10(%rsp),%r10
    644d:	41 52                	push   %r10
    644f:	4c 8d 54 24 20       	lea    0x20(%rsp),%r10
    6454:	41 52                	push   %r10
    6456:	4c 8d 54 24 30       	lea    0x30(%rsp),%r10
    645b:	41 52                	push   %r10
    645d:	55                   	push   %rbp
    645e:	e8 7d 98 00 00       	callq  fce0 <__isoc99_sscanf@plt>
    6463:	48 83 c4 20          	add    $0x20,%rsp
    6467:	48 89 df             	mov    %rbx,%rdi
    646a:	31 f6                	xor    %esi,%esi
    646c:	e8 af f1 ff ff       	callq  5620 <_Z12parseTextureP8_IO_FILEb>
    6471:	48 89 c5             	mov    %rax,%rbp
    6474:	bf f8 00 00 00       	mov    $0xf8,%edi
    6479:	e8 72 98 00 00       	callq  fcf0 <_Znwm@plt>
    647e:	49 89 c7             	mov    %rax,%r15
    6481:	f2 0f 10 84 24 a0 00 	movsd  0xa0(%rsp),%xmm0
    6488:	00 00 
    648a:	f2 0f 10 8c 24 10 01 	movsd  0x110(%rsp),%xmm1
    6491:	00 00 
    6493:	f2 0f 10 54 24 30    	movsd  0x30(%rsp),%xmm2
    6499:	4c 89 e7             	mov    %r12,%rdi
    649c:	e8 bf 7a 00 00       	callq  df60 <_ZN6VectorC1Eddd>
    64a1:	f2 0f 10 44 24 40    	movsd  0x40(%rsp),%xmm0
    64a7:	f2 0f 10 4c 24 28    	movsd  0x28(%rsp),%xmm1
    64ad:	f2 0f 10 54 24 20    	movsd  0x20(%rsp),%xmm2
    64b3:	f2 0f 10 5c 24 18    	movsd  0x18(%rsp),%xmm3
    64b9:	f2 0f 10 64 24 10    	movsd  0x10(%rsp),%xmm4
    64bf:	4c 89 ff             	mov    %r15,%rdi
    64c2:	4c 89 e6             	mov    %r12,%rsi
    64c5:	48 89 ea             	mov    %rbp,%rdx
    64c8:	e8 43 26 00 00       	callq  8b10 <_ZN4DiskC1ERK6VectorP7Textureddddd>
    64cd:	e9 98 fb ff ff       	jmpq   606a <_Z12createInputsPKc+0x26a>
    64d2:	48 8b 84 24 80 01 00 	mov    0x180(%rsp),%rax
    64d9:	00 
    64da:	48 b9 74 72 69 61 6e 	movabs $0x656c676e61697274,%rcx
    64e1:	67 6c 65 
    64e4:	48 31 c8             	xor    %rcx,%rax
    64e7:	0f b6 8c 24 88 01 00 	movzbl 0x188(%rsp),%ecx
    64ee:	00 
    64ef:	48 09 c1             	or     %rax,%rcx
    64f2:	0f 84 b3 03 00 00    	je     68ab <_Z12createInputsPKc+0xaab>
    64f8:	8b 84 24 80 01 00 00 	mov    0x180(%rsp),%eax
    64ff:	b9 73 70 68 65       	mov    $0x65687073,%ecx
    6504:	31 c8                	xor    %ecx,%eax
    6506:	8b 8c 24 83 01 00 00 	mov    0x183(%rsp),%ecx
    650d:	ba 65 72 65 00       	mov    $0x657265,%edx
    6512:	31 d1                	xor    %edx,%ecx
    6514:	09 c1                	or     %eax,%ecx
    6516:	0f 84 33 05 00 00    	je     6a4f <_Z12createInputsPKc+0xc4f>
    651c:	8b 84 24 80 01 00 00 	mov    0x180(%rsp),%eax
    6523:	b9 6d 65 73 68       	mov    $0x6873656d,%ecx
    6528:	31 c8                	xor    %ecx,%eax
    652a:	0f b6 8c 24 84 01 00 	movzbl 0x184(%rsp),%ecx
    6531:	00 
    6532:	09 c1                	or     %eax,%ecx
    6534:	0f 85 b6 06 00 00    	jne    6bf0 <_Z12createInputsPKc+0xdf0>
    653a:	4c 89 64 24 20       	mov    %r12,0x20(%rsp)
    653f:	48 c7 44 24 18 e8 03 	movq   $0x3e8,0x18(%rsp)
    6546:	00 00 
    6548:	0f 1f 84 00 00 00 00 	nopl   0x0(%rax,%rax,1)
    654f:	00 
    6550:	48 8d 7c 24 20       	lea    0x20(%rsp),%rdi
    6555:	48 8d 74 24 18       	lea    0x18(%rsp),%rsi
    655a:	ba 0a 00 00 00       	mov    $0xa,%edx
    655f:	48 89 d9             	mov    %rbx,%rcx
    6562:	e8 59 97 00 00       	callq  fcc0 <__getdelim@plt>
    6567:	83 f8 ff             	cmp    $0xffffffff,%eax
    656a:	0f 84 23 06 00 00    	je     6b93 <_Z12createInputsPKc+0xd93>
    6570:	0f b6 84 24 60 02 00 	movzbl 0x260(%rsp),%eax
    6577:	00 
    6578:	48 83 f8 23          	cmp    $0x23,%rax
    657c:	0f 87 ba 00 00 00    	ja     663c <_Z12createInputsPKc+0x83c>
    6582:	49 0f a3 c5          	bt     %rax,%r13
    6586:	0f 83 b0 00 00 00    	jae    663c <_Z12createInputsPKc+0x83c>
    658c:	eb c2                	jmp    6550 <_Z12createInputsPKc+0x750>
    658e:	4c 89 e7             	mov    %r12,%rdi
    6591:	48 8d 35 e9 bb ff ff 	lea    -0x4417(%rip),%rsi        # 2181 <_IO_stdin_used+0x881>
    6598:	48 8d 94 24 a0 00 00 	lea    0xa0(%rsp),%rdx
    659f:	00 
    65a0:	48 8d 8c 24 10 01 00 	lea    0x110(%rsp),%rcx
    65a7:	00 
    65a8:	4c 8d 44 24 30       	lea    0x30(%rsp),%r8
    65ad:	4d 89 f9             	mov    %r15,%r9
    65b0:	31 c0                	xor    %eax,%eax
    65b2:	4c 8d 54 24 10       	lea    0x10(%rsp),%r10
    65b7:	41 52                	push   %r10
    65b9:	4c 8d 54 24 20       	lea    0x20(%rsp),%r10
    65be:	41 52                	push   %r10
    65c0:	4c 8d 54 24 30       	lea    0x30(%rsp),%r10
    65c5:	41 52                	push   %r10
    65c7:	55                   	push   %rbp
    65c8:	e8 13 97 00 00       	callq  fce0 <__isoc99_sscanf@plt>
    65cd:	48 83 c4 20          	add    $0x20,%rsp
    65d1:	48 89 df             	mov    %rbx,%rdi
    65d4:	31 f6                	xor    %esi,%esi
    65d6:	e8 45 f0 ff ff       	callq  5620 <_Z12parseTextureP8_IO_FILEb>
    65db:	48 89 c5             	mov    %rax,%rbp
    65de:	bf f8 00 00 00       	mov    $0xf8,%edi
    65e3:	e8 08 97 00 00       	callq  fcf0 <_Znwm@plt>
    65e8:	49 89 c7             	mov    %rax,%r15
    65eb:	f2 0f 10 84 24 a0 00 	movsd  0xa0(%rsp),%xmm0
    65f2:	00 00 
    65f4:	f2 0f 10 8c 24 10 01 	movsd  0x110(%rsp),%xmm1
    65fb:	00 00 
    65fd:	f2 0f 10 54 24 30    	movsd  0x30(%rsp),%xmm2
    6603:	4c 89 e7             	mov    %r12,%rdi
    6606:	e8 55 79 00 00       	callq  df60 <_ZN6VectorC1Eddd>
    660b:	f2 0f 10 44 24 40    	movsd  0x40(%rsp),%xmm0
    6611:	f2 0f 10 4c 24 28    	movsd  0x28(%rsp),%xmm1
    6617:	f2 0f 10 54 24 20    	movsd  0x20(%rsp),%xmm2
    661d:	f2 0f 10 5c 24 18    	movsd  0x18(%rsp),%xmm3
    6623:	f2 0f 10 64 24 10    	movsd  0x10(%rsp),%xmm4
    6629:	4c 89 ff             	mov    %r15,%rdi
    662c:	4c 89 e6             	mov    %r12,%rsi
    662f:	48 89 ea             	mov    %rbp,%rdx
    6632:	e8 c9 12 00 00       	callq  7900 <_ZN3BoxC1ERK6VectorP7Textureddddd>
    6637:	e9 2e fa ff ff       	jmpq   606a <_Z12createInputsPKc+0x26a>
    663c:	48 83 ec 08          	sub    $0x8,%rsp
    6640:	4c 89 e7             	mov    %r12,%rdi
    6643:	48 8d 35 65 bc ff ff 	lea    -0x439b(%rip),%rsi        # 22af <_IO_stdin_used+0x9af>
    664a:	4c 8d a4 24 a8 00 00 	lea    0xa8(%rsp),%r12
    6651:	00 
    6652:	4c 89 e2             	mov    %r12,%rdx
    6655:	48 8d 4c 24 18       	lea    0x18(%rsp),%rcx
    665a:	4c 8d 84 24 18 01 00 	lea    0x118(%rsp),%r8
    6661:	00 
    6662:	4c 8d 4c 24 10       	lea    0x10(%rsp),%r9
    6667:	31 c0                	xor    %eax,%eax
    6669:	55                   	push   %rbp
    666a:	41 57                	push   %r15
    666c:	4c 8d 54 24 48       	lea    0x48(%rsp),%r10
    6671:	41 52                	push   %r10
    6673:	e8 68 96 00 00       	callq  fce0 <__isoc99_sscanf@plt>
    6678:	48 83 c4 20          	add    $0x20,%rsp
    667c:	48 89 df             	mov    %rbx,%rdi
    667f:	31 f6                	xor    %esi,%esi
    6681:	e8 9a ef ff ff       	callq  5620 <_Z12parseTextureP8_IO_FILEb>
    6686:	48 89 84 24 98 00 00 	mov    %rax,0x98(%rsp)
    668d:	00 
    668e:	48 89 df             	mov    %rbx,%rdi
    6691:	be 01 00 00 00       	mov    $0x1,%esi
    6696:	e8 85 ef ff ff       	callq  5620 <_Z12parseTextureP8_IO_FILEb>
    669b:	48 89 84 24 90 00 00 	mov    %rax,0x90(%rsp)
    66a2:	00 
    66a3:	4c 89 e7             	mov    %r12,%rdi
    66a6:	4c 8d 3d 34 ba ff ff 	lea    -0x45cc(%rip),%r15        # 20e1 <_IO_stdin_used+0x7e1>
    66ad:	4c 89 fe             	mov    %r15,%rsi
    66b0:	e8 9b 95 00 00       	callq  fc50 <fopen@plt>
    66b5:	48 89 c5             	mov    %rax,%rbp
    66b8:	48 8d bc 24 10 01 00 	lea    0x110(%rsp),%rdi
    66bf:	00 
    66c0:	4c 89 fe             	mov    %r15,%rsi
    66c3:	e8 88 95 00 00       	callq  fc50 <fopen@plt>
    66c8:	48 85 ed             	test   %rbp,%rbp
    66cb:	0f 84 5f 05 00 00    	je     6c30 <_Z12createInputsPKc+0xe30>
    66d1:	49 89 c4             	mov    %rax,%r12
    66d4:	48 85 c0             	test   %rax,%rax
    66d7:	0f 84 33 05 00 00    	je     6c10 <_Z12createInputsPKc+0xe10>
    66dd:	8b 74 24 10          	mov    0x10(%rsp),%esi
    66e1:	48 89 ef             	mov    %rbp,%rdi
    66e4:	e8 a7 f5 ff ff       	callq  5c90 <_Z10getVectorsP8_IO_FILEi>
    66e9:	48 89 44 24 48       	mov    %rax,0x48(%rsp)
    66ee:	48 89 ef             	mov    %rbp,%rdi
    66f1:	e8 6a 95 00 00       	callq  fc60 <fclose@plt>
    66f6:	8b 74 24 08          	mov    0x8(%rsp),%esi
    66fa:	4c 89 e7             	mov    %r12,%rdi
    66fd:	e8 5e f6 ff ff       	callq  5d60 <_Z12getTrianglesP8_IO_FILEi>
    6702:	48 89 c5             	mov    %rax,%rbp
    6705:	4c 89 e7             	mov    %r12,%rdi
    6708:	e8 53 95 00 00       	callq  fc60 <fclose@plt>
    670d:	f2 0f 10 44 24 30    	movsd  0x30(%rsp),%xmm0
    6713:	f2 0f 10 4c 24 40    	movsd  0x40(%rsp),%xmm1
    6719:	f2 0f 10 54 24 28    	movsd  0x28(%rsp),%xmm2
    671f:	48 8d bc 24 60 02 00 	lea    0x260(%rsp),%rdi
    6726:	00 
    6727:	e8 34 78 00 00       	callq  df60 <_ZN6VectorC1Eddd>
    672c:	83 7c 24 08 00       	cmpl   $0x0,0x8(%rsp)
    6731:	0f 8e 67 01 00 00    	jle    689e <_Z12createInputsPKc+0xa9e>
    6737:	48 83 c5 08          	add    $0x8,%rbp
    673b:	45 31 ff             	xor    %r15d,%r15d
    673e:	66 90                	xchg   %ax,%ax
    6740:	bf 00 01 00 00       	mov    $0x100,%edi
    6745:	e8 a6 95 00 00       	callq  fcf0 <_Znwm@plt>
    674a:	49 89 c4             	mov    %rax,%r12
    674d:	8b 45 f8             	mov    -0x8(%rbp),%eax
    6750:	48 8d 04 40          	lea    (%rax,%rax,2),%rax
    6754:	48 8b 4c 24 48       	mov    0x48(%rsp),%rcx
    6759:	48 8d 34 c1          	lea    (%rcx,%rax,8),%rsi
    675d:	48 83 ec 20          	sub    $0x20,%rsp
    6761:	48 8b 84 24 90 02 00 	mov    0x290(%rsp),%rax
    6768:	00 
    6769:	48 89 44 24 10       	mov    %rax,0x10(%rsp)
    676e:	0f 10 84 24 80 02 00 	movups 0x280(%rsp),%xmm0
    6775:	00 
    6776:	0f 11 04 24          	movups %xmm0,(%rsp)
    677a:	48 8d bc 24 20 02 00 	lea    0x220(%rsp),%rdi
    6781:	00 
    6782:	e8 c9 7a 00 00       	callq  e250 <_ZN6VectorplES_>
    6787:	48 83 c4 20          	add    $0x20,%rsp
    678b:	8b 45 fc             	mov    -0x4(%rbp),%eax
    678e:	48 8d 04 40          	lea    (%rax,%rax,2),%rax
    6792:	48 8b 4c 24 48       	mov    0x48(%rsp),%rcx
    6797:	48 8d 34 c1          	lea    (%rcx,%rax,8),%rsi
    679b:	48 83 ec 20          	sub    $0x20,%rsp
    679f:	48 8b 84 24 90 02 00 	mov    0x290(%rsp),%rax
    67a6:	00 
    67a7:	48 89 44 24 10       	mov    %rax,0x10(%rsp)
    67ac:	0f 10 84 24 80 02 00 	movups 0x280(%rsp),%xmm0
    67b3:	00 
    67b4:	0f 11 04 24          	movups %xmm0,(%rsp)
    67b8:	48 8d bc 24 08 02 00 	lea    0x208(%rsp),%rdi
    67bf:	00 
    67c0:	e8 8b 7a 00 00       	callq  e250 <_ZN6VectorplES_>
    67c5:	48 83 c4 20          	add    $0x20,%rsp
    67c9:	8b 45 00             	mov    0x0(%rbp),%eax
    67cc:	48 8d 04 40          	lea    (%rax,%rax,2),%rax
    67d0:	48 8b 4c 24 48       	mov    0x48(%rsp),%rcx
    67d5:	48 8d 34 c1          	lea    (%rcx,%rax,8),%rsi
    67d9:	48 83 ec 20          	sub    $0x20,%rsp
    67dd:	48 8b 84 24 90 02 00 	mov    0x290(%rsp),%rax
    67e4:	00 
    67e5:	48 89 44 24 10       	mov    %rax,0x10(%rsp)
    67ea:	0f 10 84 24 80 02 00 	movups 0x280(%rsp),%xmm0
    67f1:	00 
    67f2:	0f 11 04 24          	movups %xmm0,(%rsp)
    67f6:	48 8d bc 24 f0 01 00 	lea    0x1f0(%rsp),%rdi
    67fd:	00 
    67fe:	e8 4d 7a 00 00       	callq  e250 <_ZN6VectorplES_>
    6803:	48 83 c4 20          	add    $0x20,%rsp
    6807:	48 83 ec 50          	sub    $0x50,%rsp
    680b:	48 8b 84 24 30 02 00 	mov    0x230(%rsp),%rax
    6812:	00 
    6813:	48 89 44 24 40       	mov    %rax,0x40(%rsp)
    6818:	0f 10 84 24 20 02 00 	movups 0x220(%rsp),%xmm0
    681f:	00 
    6820:	0f 11 44 24 30       	movups %xmm0,0x30(%rsp)
    6825:	48 8b 84 24 48 02 00 	mov    0x248(%rsp),%rax
    682c:	00 
    682d:	48 89 44 24 28       	mov    %rax,0x28(%rsp)
    6832:	0f 10 84 24 38 02 00 	movups 0x238(%rsp),%xmm0
    6839:	00 
    683a:	0f 11 44 24 18       	movups %xmm0,0x18(%rsp)
    683f:	48 8b 84 24 60 02 00 	mov    0x260(%rsp),%rax
    6846:	00 
    6847:	48 89 44 24 10       	mov    %rax,0x10(%rsp)
    684c:	0f 10 84 24 50 02 00 	movups 0x250(%rsp),%xmm0
    6853:	00 
    6854:	0f 11 04 24          	movups %xmm0,(%rsp)
    6858:	4c 89 e7             	mov    %r12,%rdi
    685b:	48 8b b4 24 e8 00 00 	mov    0xe8(%rsp),%rsi
    6862:	00 
    6863:	e8 68 66 00 00       	callq  ced0 <_ZN8TriangleC1E6VectorS0_S0_P7Texture>
    6868:	48 83 c4 50          	add    $0x50,%rsp
    686c:	48 8b 7c 24 38       	mov    0x38(%rsp),%rdi
    6871:	4c 89 e6             	mov    %r12,%rsi
    6874:	e8 77 2c 00 00       	callq  94f0 <_ZN8Autonoma8addShapeEP5Shape>
    6879:	48 8b 84 24 90 00 00 	mov    0x90(%rsp),%rax
    6880:	00 
    6881:	49 89 84 24 a0 00 00 	mov    %rax,0xa0(%r12)
    6888:	00 
    6889:	49 ff c7             	inc    %r15
    688c:	48 63 44 24 08       	movslq 0x8(%rsp),%rax
    6891:	48 83 c5 0c          	add    $0xc,%rbp
    6895:	49 39 c7             	cmp    %rax,%r15
    6898:	0f 8c a2 fe ff ff    	jl     6740 <_Z12createInputsPKc+0x940>
    689e:	4c 8d a4 24 60 02 00 	lea    0x260(%rsp),%r12
    68a5:	00 
    68a6:	e9 e0 f7 ff ff       	jmpq   608b <_Z12createInputsPKc+0x28b>
    68ab:	4c 89 64 24 50       	mov    %r12,0x50(%rsp)
    68b0:	48 c7 44 24 58 e8 03 	movq   $0x3e8,0x58(%rsp)
    68b7:	00 00 
    68b9:	0f 1f 80 00 00 00 00 	nopl   0x0(%rax)
    68c0:	4c 89 f7             	mov    %r14,%rdi
    68c3:	48 8d 74 24 58       	lea    0x58(%rsp),%rsi
    68c8:	ba 0a 00 00 00       	mov    $0xa,%edx
    68cd:	48 89 d9             	mov    %rbx,%rcx
    68d0:	e8 eb 93 00 00       	callq  fcc0 <__getdelim@plt>
    68d5:	83 f8 ff             	cmp    $0xffffffff,%eax
    68d8:	0f 84 cb 02 00 00    	je     6ba9 <_Z12createInputsPKc+0xda9>
    68de:	0f b6 84 24 60 02 00 	movzbl 0x260(%rsp),%eax
    68e5:	00 
    68e6:	48 83 f8 23          	cmp    $0x23,%rax
    68ea:	77 08                	ja     68f4 <_Z12createInputsPKc+0xaf4>
    68ec:	49 0f a3 c5          	bt     %rax,%r13
    68f0:	73 02                	jae    68f4 <_Z12createInputsPKc+0xaf4>
    68f2:	eb cc                	jmp    68c0 <_Z12createInputsPKc+0xac0>
    68f4:	48 83 ec 08          	sub    $0x8,%rsp
    68f8:	49 89 ea             	mov    %rbp,%r10
    68fb:	4c 89 e5             	mov    %r12,%rbp
    68fe:	4c 89 e7             	mov    %r12,%rdi
    6901:	48 8d 35 3c b2 ff ff 	lea    -0x4dc4(%rip),%rsi        # 1b44 <_IO_stdin_used+0x244>
    6908:	48 8d 94 24 a8 00 00 	lea    0xa8(%rsp),%rdx
    690f:	00 
    6910:	48 8d 8c 24 18 01 00 	lea    0x118(%rsp),%rcx
    6917:	00 
    6918:	4c 8d 44 24 38       	lea    0x38(%rsp),%r8
    691d:	4d 89 f9             	mov    %r15,%r9
    6920:	31 c0                	xor    %eax,%eax
    6922:	4c 8d 5c 24 10       	lea    0x10(%rsp),%r11
    6927:	41 53                	push   %r11
    6929:	4c 8d 5c 24 20       	lea    0x20(%rsp),%r11
    692e:	41 53                	push   %r11
    6930:	4c 8d 5c 24 30       	lea    0x30(%rsp),%r11
    6935:	41 53                	push   %r11
    6937:	4c 8d 5c 24 40       	lea    0x40(%rsp),%r11
    693c:	41 53                	push   %r11
    693e:	41 52                	push   %r10
    6940:	e8 9b 93 00 00       	callq  fce0 <__isoc99_sscanf@plt>
    6945:	48 83 c4 30          	add    $0x30,%rsp
    6949:	48 89 df             	mov    %rbx,%rdi
    694c:	31 f6                	xor    %esi,%esi
    694e:	e8 cd ec ff ff       	callq  5620 <_Z12parseTextureP8_IO_FILEb>
    6953:	49 89 c4             	mov    %rax,%r12
    6956:	bf 00 01 00 00       	mov    $0x100,%edi
    695b:	e8 90 93 00 00       	callq  fcf0 <_Znwm@plt>
    6960:	49 89 c7             	mov    %rax,%r15
    6963:	f2 0f 10 84 24 a0 00 	movsd  0xa0(%rsp),%xmm0
    696a:	00 00 
    696c:	f2 0f 10 8c 24 10 01 	movsd  0x110(%rsp),%xmm1
    6973:	00 00 
    6975:	f2 0f 10 54 24 30    	movsd  0x30(%rsp),%xmm2
    697b:	48 8d bc 24 48 02 00 	lea    0x248(%rsp),%rdi
    6982:	00 
    6983:	e8 d8 75 00 00       	callq  df60 <_ZN6VectorC1Eddd>
    6988:	f2 0f 10 44 24 40    	movsd  0x40(%rsp),%xmm0
    698e:	f2 0f 10 4c 24 28    	movsd  0x28(%rsp),%xmm1
    6994:	f2 0f 10 54 24 20    	movsd  0x20(%rsp),%xmm2
    699a:	48 8d bc 24 30 02 00 	lea    0x230(%rsp),%rdi
    69a1:	00 
    69a2:	e8 b9 75 00 00       	callq  df60 <_ZN6VectorC1Eddd>
    69a7:	f2 0f 10 44 24 18    	movsd  0x18(%rsp),%xmm0
    69ad:	f2 0f 10 4c 24 10    	movsd  0x10(%rsp),%xmm1
    69b3:	f2 0f 10 54 24 08    	movsd  0x8(%rsp),%xmm2
    69b9:	48 8d bc 24 18 02 00 	lea    0x218(%rsp),%rdi
    69c0:	00 
    69c1:	e8 9a 75 00 00       	callq  df60 <_ZN6VectorC1Eddd>
    69c6:	48 83 ec 50          	sub    $0x50,%rsp
    69ca:	48 8b 84 24 78 02 00 	mov    0x278(%rsp),%rax
    69d1:	00 
    69d2:	48 89 44 24 40       	mov    %rax,0x40(%rsp)
    69d7:	0f 10 84 24 68 02 00 	movups 0x268(%rsp),%xmm0
    69de:	00 
    69df:	0f 11 44 24 30       	movups %xmm0,0x30(%rsp)
    69e4:	48 8b 84 24 90 02 00 	mov    0x290(%rsp),%rax
    69eb:	00 
    69ec:	48 89 44 24 28       	mov    %rax,0x28(%rsp)
    69f1:	0f 10 84 24 80 02 00 	movups 0x280(%rsp),%xmm0
    69f8:	00 
    69f9:	0f 11 44 24 18       	movups %xmm0,0x18(%rsp)
    69fe:	48 8b 84 24 a8 02 00 	mov    0x2a8(%rsp),%rax
    6a05:	00 
    6a06:	48 89 44 24 10       	mov    %rax,0x10(%rsp)
    6a0b:	0f 10 84 24 98 02 00 	movups 0x298(%rsp),%xmm0
    6a12:	00 
    6a13:	0f 11 04 24          	movups %xmm0,(%rsp)
    6a17:	4c 89 ff             	mov    %r15,%rdi
    6a1a:	4c 89 e6             	mov    %r12,%rsi
    6a1d:	e8 ae 64 00 00       	callq  ced0 <_ZN8TriangleC1E6VectorS0_S0_P7Texture>
    6a22:	48 83 c4 50          	add    $0x50,%rsp
    6a26:	48 8b 7c 24 38       	mov    0x38(%rsp),%rdi
    6a2b:	4c 89 fe             	mov    %r15,%rsi
    6a2e:	e8 bd 2a 00 00       	callq  94f0 <_ZN8Autonoma8addShapeEP5Shape>
    6a33:	48 89 df             	mov    %rbx,%rdi
    6a36:	be 01 00 00 00       	mov    $0x1,%esi
    6a3b:	e8 e0 eb ff ff       	callq  5620 <_Z12parseTextureP8_IO_FILEb>
    6a40:	49 89 87 a0 00 00 00 	mov    %rax,0xa0(%r15)
    6a47:	49 89 ec             	mov    %rbp,%r12
    6a4a:	e9 3c f6 ff ff       	jmpq   608b <_Z12createInputsPKc+0x28b>
    6a4f:	4c 89 64 24 10       	mov    %r12,0x10(%rsp)
    6a54:	48 c7 44 24 08 e8 03 	movq   $0x3e8,0x8(%rsp)
    6a5b:	00 00 
    6a5d:	0f 1f 00             	nopl   (%rax)
    6a60:	48 8d 7c 24 10       	lea    0x10(%rsp),%rdi
    6a65:	48 8d 74 24 08       	lea    0x8(%rsp),%rsi
    6a6a:	ba 0a 00 00 00       	mov    $0xa,%edx
    6a6f:	48 89 d9             	mov    %rbx,%rcx
    6a72:	e8 49 92 00 00       	callq  fcc0 <__getdelim@plt>
    6a77:	83 f8 ff             	cmp    $0xffffffff,%eax
    6a7a:	0f 84 3f 01 00 00    	je     6bbf <_Z12createInputsPKc+0xdbf>
    6a80:	0f b6 84 24 60 02 00 	movzbl 0x260(%rsp),%eax
    6a87:	00 
    6a88:	48 83 f8 23          	cmp    $0x23,%rax
    6a8c:	77 08                	ja     6a96 <_Z12createInputsPKc+0xc96>
    6a8e:	49 0f a3 c5          	bt     %rax,%r13
    6a92:	73 02                	jae    6a96 <_Z12createInputsPKc+0xc96>
    6a94:	eb ca                	jmp    6a60 <_Z12createInputsPKc+0xc60>
    6a96:	48 83 ec 08          	sub    $0x8,%rsp
    6a9a:	4c 89 e7             	mov    %r12,%rdi
    6a9d:	48 8d 35 fd b4 ff ff 	lea    -0x4b03(%rip),%rsi        # 1fa1 <_IO_stdin_used+0x6a1>
    6aa4:	48 8d 94 24 a8 00 00 	lea    0xa8(%rsp),%rdx
    6aab:	00 
    6aac:	48 8d 8c 24 18 01 00 	lea    0x118(%rsp),%rcx
    6ab3:	00 
    6ab4:	4c 8d 44 24 38       	lea    0x38(%rsp),%r8
    6ab9:	4d 89 f9             	mov    %r15,%r9
    6abc:	31 c0                	xor    %eax,%eax
    6abe:	4c 8d 54 24 20       	lea    0x20(%rsp),%r10
    6ac3:	41 52                	push   %r10
    6ac5:	4c 8d 54 24 30       	lea    0x30(%rsp),%r10
    6aca:	41 52                	push   %r10
    6acc:	55                   	push   %rbp
    6acd:	e8 0e 92 00 00       	callq  fce0 <__isoc99_sscanf@plt>
    6ad2:	48 83 c4 20          	add    $0x20,%rsp
    6ad6:	48 89 df             	mov    %rbx,%rdi
    6ad9:	31 f6                	xor    %esi,%esi
    6adb:	e8 40 eb ff ff       	callq  5620 <_Z12parseTextureP8_IO_FILEb>
    6ae0:	48 89 c5             	mov    %rax,%rbp
    6ae3:	bf b0 00 00 00       	mov    $0xb0,%edi
    6ae8:	e8 03 92 00 00       	callq  fcf0 <_Znwm@plt>
    6aed:	49 89 c7             	mov    %rax,%r15
    6af0:	f2 0f 10 84 24 a0 00 	movsd  0xa0(%rsp),%xmm0
    6af7:	00 00 
    6af9:	f2 0f 10 8c 24 10 01 	movsd  0x110(%rsp),%xmm1
    6b00:	00 00 
    6b02:	f2 0f 10 54 24 30    	movsd  0x30(%rsp),%xmm2
    6b08:	4c 89 e7             	mov    %r12,%rdi
    6b0b:	e8 50 74 00 00       	callq  df60 <_ZN6VectorC1Eddd>
    6b10:	f2 0f 10 44 24 40    	movsd  0x40(%rsp),%xmm0
    6b16:	f2 0f 10 4c 24 28    	movsd  0x28(%rsp),%xmm1
    6b1c:	f2 0f 10 54 24 20    	movsd  0x20(%rsp),%xmm2
    6b22:	f2 0f 10 5c 24 18    	movsd  0x18(%rsp),%xmm3
    6b28:	4c 89 ff             	mov    %r15,%rdi
    6b2b:	4c 89 e6             	mov    %r12,%rsi
    6b2e:	48 89 ea             	mov    %rbp,%rdx
    6b31:	e8 da 53 00 00       	callq  bf10 <_ZN6SphereC1ERK6VectorP7Texturedddd>
    6b36:	e9 2f f5 ff ff       	jmpq   606a <_Z12createInputsPKc+0x26a>
    6b3b:	48 8d 3d 6c b3 ff ff 	lea    -0x4c94(%rip),%rdi        # 1eae <_IO_stdin_used+0x5ae>
    6b42:	e8 39 91 00 00       	callq  fc80 <puts@plt>
    6b47:	bf 01 00 00 00       	mov    $0x1,%edi
    6b4c:	e8 7f 91 00 00       	callq  fcd0 <exit@plt>
    6b51:	48 8d 3d 70 b7 ff ff 	lea    -0x4890(%rip),%rdi        # 22c8 <_IO_stdin_used+0x9c8>
    6b58:	e8 23 91 00 00       	callq  fc80 <puts@plt>
    6b5d:	bf 01 00 00 00       	mov    $0x1,%edi
    6b62:	e8 69 91 00 00       	callq  fcd0 <exit@plt>
    6b67:	48 8d 3d 05 af ff ff 	lea    -0x50fb(%rip),%rdi        # 1a73 <_IO_stdin_used+0x173>
    6b6e:	e8 0d 91 00 00       	callq  fc80 <puts@plt>
    6b73:	bf 01 00 00 00       	mov    $0x1,%edi
    6b78:	e8 53 91 00 00       	callq  fcd0 <exit@plt>
    6b7d:	48 8d 3d 13 b1 ff ff 	lea    -0x4eed(%rip),%rdi        # 1c97 <_IO_stdin_used+0x397>
    6b84:	e8 f7 90 00 00       	callq  fc80 <puts@plt>
    6b89:	bf 01 00 00 00       	mov    $0x1,%edi
    6b8e:	e8 3d 91 00 00       	callq  fcd0 <exit@plt>
    6b93:	48 8d 3d 05 b9 ff ff 	lea    -0x46fb(%rip),%rdi        # 249f <_IO_stdin_used+0xb9f>
    6b9a:	e8 e1 90 00 00       	callq  fc80 <puts@plt>
    6b9f:	bf 01 00 00 00       	mov    $0x1,%edi
    6ba4:	e8 27 91 00 00       	callq  fcd0 <exit@plt>
    6ba9:	48 8d 3d 0c b2 ff ff 	lea    -0x4df4(%rip),%rdi        # 1dbc <_IO_stdin_used+0x4bc>
    6bb0:	e8 cb 90 00 00       	callq  fc80 <puts@plt>
    6bb5:	bf 01 00 00 00       	mov    $0x1,%edi
    6bba:	e8 11 91 00 00       	callq  fcd0 <exit@plt>
    6bbf:	48 8d 3d 58 b0 ff ff 	lea    -0x4fa8(%rip),%rdi        # 1c1e <_IO_stdin_used+0x31e>
    6bc6:	e8 b5 90 00 00       	callq  fc80 <puts@plt>
    6bcb:	bf 01 00 00 00       	mov    $0x1,%edi
    6bd0:	e8 fb 90 00 00       	callq  fcd0 <exit@plt>
    6bd5:	48 8d 3d 4b b7 ff ff 	lea    -0x48b5(%rip),%rdi        # 2327 <_IO_stdin_used+0xa27>
    6bdc:	4c 89 f6             	mov    %r14,%rsi
    6bdf:	31 c0                	xor    %eax,%eax
    6be1:	e8 1a 91 00 00       	callq  fd00 <printf@plt>
    6be6:	bf 01 00 00 00       	mov    $0x1,%edi
    6beb:	e8 e0 90 00 00       	callq  fcd0 <exit@plt>
    6bf0:	48 8d 3d 44 b3 ff ff 	lea    -0x4cbc(%rip),%rdi        # 1f3b <_IO_stdin_used+0x63b>
    6bf7:	48 8d b4 24 80 01 00 	lea    0x180(%rsp),%rsi
    6bfe:	00 
    6bff:	31 c0                	xor    %eax,%eax
    6c01:	e8 fa 90 00 00       	callq  fd00 <printf@plt>
    6c06:	bf 01 00 00 00       	mov    $0x1,%edi
    6c0b:	e8 c0 90 00 00       	callq  fcd0 <exit@plt>
    6c10:	48 8d 3d 48 b8 ff ff 	lea    -0x47b8(%rip),%rdi        # 245f <_IO_stdin_used+0xb5f>
    6c17:	48 8d b4 24 10 01 00 	lea    0x110(%rsp),%rsi
    6c1e:	00 
    6c1f:	31 c0                	xor    %eax,%eax
    6c21:	e8 da 90 00 00       	callq  fd00 <printf@plt>
    6c26:	bf 01 00 00 00       	mov    $0x1,%edi
    6c2b:	e8 a0 90 00 00       	callq  fcd0 <exit@plt>
    6c30:	48 8d 3d f5 b8 ff ff 	lea    -0x470b(%rip),%rdi        # 252c <_IO_stdin_used+0xc2c>
    6c37:	48 8d b4 24 a0 00 00 	lea    0xa0(%rsp),%rsi
    6c3e:	00 
    6c3f:	31 c0                	xor    %eax,%eax
    6c41:	e8 ba 90 00 00       	callq  fd00 <printf@plt>
    6c46:	bf 01 00 00 00       	mov    $0x1,%edi
    6c4b:	e8 80 90 00 00       	callq  fcd0 <exit@plt>
    6c50:	eb 1d                	jmp    6c6f <_Z12createInputsPKc+0xe6f>
    6c52:	eb 1b                	jmp    6c6f <_Z12createInputsPKc+0xe6f>
    6c54:	48 89 c3             	mov    %rax,%rbx
    6c57:	4c 89 f7             	mov    %r14,%rdi
    6c5a:	e8 b1 90 00 00       	callq  fd10 <_ZdlPv@plt>
    6c5f:	48 89 df             	mov    %rbx,%rdi
    6c62:	e8 b9 90 00 00       	callq  fd20 <_Unwind_Resume@plt>
    6c67:	eb 06                	jmp    6c6f <_Z12createInputsPKc+0xe6f>
    6c69:	eb 04                	jmp    6c6f <_Z12createInputsPKc+0xe6f>
    6c6b:	eb 02                	jmp    6c6f <_Z12createInputsPKc+0xe6f>
    6c6d:	eb 00                	jmp    6c6f <_Z12createInputsPKc+0xe6f>
    6c6f:	48 89 c3             	mov    %rax,%rbx
    6c72:	4c 89 ff             	mov    %r15,%rdi
    6c75:	e8 96 90 00 00       	callq  fd10 <_ZdlPv@plt>
    6c7a:	48 89 df             	mov    %rbx,%rdi
    6c7d:	e8 9e 90 00 00       	callq  fd20 <_Unwind_Resume@plt>
    6c82:	48 89 c3             	mov    %rax,%rbx
    6c85:	4c 89 e7             	mov    %r12,%rdi
    6c88:	e8 83 90 00 00       	callq  fd10 <_ZdlPv@plt>
    6c8d:	48 89 df             	mov    %rbx,%rdi
    6c90:	e8 8b 90 00 00       	callq  fd20 <_Unwind_Resume@plt>
    6c95:	66 66 2e 0f 1f 84 00 	data16 nopw %cs:0x0(%rax,%rax,1)
    6c9c:	00 00 00 00 

0000000000006ca0 <_Z8identityddd>:
    6ca0:	f2 0f 10 1d a0 ac ff 	movsd  -0x5360(%rip),%xmm3        # 1948 <_IO_stdin_used+0x48>
    6ca7:	ff 
    6ca8:	f2 0f 5c d8          	subsd  %xmm0,%xmm3
    6cac:	f2 0f 59 c2          	mulsd  %xmm2,%xmm0
    6cb0:	f2 0f 59 d9          	mulsd  %xmm1,%xmm3
    6cb4:	f2 0f 58 c3          	addsd  %xmm3,%xmm0
    6cb8:	c3                   	retq   
    6cb9:	0f 1f 80 00 00 00 00 	nopl   0x0(%rax)

0000000000006cc0 <_Z5expfnddd>:
    6cc0:	48 83 ec 18          	sub    $0x18,%rsp
    6cc4:	f2 0f 11 4c 24 10    	movsd  %xmm1,0x10(%rsp)
    6cca:	f2 0f 5c d1          	subsd  %xmm1,%xmm2
    6cce:	f2 0f 11 54 24 08    	movsd  %xmm2,0x8(%rsp)
    6cd4:	f2 0f 59 05 4c ac ff 	mulsd  -0x53b4(%rip),%xmm0        # 1928 <_IO_stdin_used+0x28>
    6cdb:	ff 
    6cdc:	e8 5f 90 00 00       	callq  fd40 <exp@plt>
    6ce1:	f2 0f 59 44 24 08    	mulsd  0x8(%rsp),%xmm0
    6ce7:	f2 0f 5e 05 51 ac ff 	divsd  -0x53af(%rip),%xmm0        # 1940 <_IO_stdin_used+0x40>
    6cee:	ff 
    6cef:	f2 0f 58 44 24 10    	addsd  0x10(%rsp),%xmm0
    6cf5:	48 83 c4 18          	add    $0x18,%rsp
    6cf9:	c3                   	retq   
    6cfa:	66 0f 1f 44 00 00    	nopw   0x0(%rax,%rax,1)

0000000000006d00 <_Z5sinfnddd>:
    6d00:	48 83 ec 18          	sub    $0x18,%rsp
    6d04:	f2 0f 11 4c 24 10    	movsd  %xmm1,0x10(%rsp)
    6d0a:	f2 0f 5c d1          	subsd  %xmm1,%xmm2
    6d0e:	f2 0f 11 54 24 08    	movsd  %xmm2,0x8(%rsp)
    6d14:	f2 0f 59 05 6c ac ff 	mulsd  -0x5394(%rip),%xmm0        # 1988 <_IO_stdin_used+0x88>
    6d1b:	ff 
    6d1c:	e8 2f 90 00 00       	callq  fd50 <sin@plt>
    6d21:	f2 0f 59 44 24 08    	mulsd  0x8(%rsp),%xmm0
    6d27:	f2 0f 58 44 24 10    	addsd  0x10(%rsp),%xmm0
    6d2d:	48 83 c4 18          	add    $0x18,%rsp
    6d31:	c3                   	retq   
    6d32:	66 66 66 66 66 2e 0f 	data16 data16 data16 data16 nopw %cs:0x0(%rax,%rax,1)
    6d39:	1f 84 00 00 00 00 00 

0000000000006d40 <_Z5cosfnddd>:
    6d40:	48 83 ec 18          	sub    $0x18,%rsp
    6d44:	f2 0f 11 4c 24 10    	movsd  %xmm1,0x10(%rsp)
    6d4a:	f2 0f 5c d1          	subsd  %xmm1,%xmm2
    6d4e:	f2 0f 11 54 24 08    	movsd  %xmm2,0x8(%rsp)
    6d54:	f2 0f 59 05 2c ac ff 	mulsd  -0x53d4(%rip),%xmm0        # 1988 <_IO_stdin_used+0x88>
    6d5b:	ff 
    6d5c:	e8 ff 8f 00 00       	callq  fd60 <cos@plt>
    6d61:	f2 0f 59 44 24 08    	mulsd  0x8(%rsp),%xmm0
    6d67:	f2 0f 58 44 24 10    	addsd  0x10(%rsp),%xmm0
    6d6d:	48 83 c4 18          	add    $0x18,%rsp
    6d71:	c3                   	retq   
    6d72:	66 66 66 66 66 2e 0f 	data16 data16 data16 data16 nopw %cs:0x0(%rax,%rax,1)
    6d79:	1f 84 00 00 00 00 00 

0000000000006d80 <_Z8setFramePKcP8Autonomaii>:
    6d80:	55                   	push   %rbp
    6d81:	41 57                	push   %r15
    6d83:	41 56                	push   %r14
    6d85:	41 55                	push   %r13
    6d87:	41 54                	push   %r12
    6d89:	53                   	push   %rbx
    6d8a:	48 81 ec 18 05 00 00 	sub    $0x518,%rsp
    6d91:	48 89 f3             	mov    %rsi,%rbx
    6d94:	48 85 ff             	test   %rdi,%rdi
    6d97:	74 46                	je     6ddf <_Z8setFramePKcP8Autonomaii+0x5f>
    6d99:	89 cd                	mov    %ecx,%ebp
    6d9b:	41 89 d4             	mov    %edx,%r12d
    6d9e:	48 8d 35 3c b3 ff ff 	lea    -0x4cc4(%rip),%rsi        # 20e1 <_IO_stdin_used+0x7e1>
    6da5:	e8 a6 8e 00 00       	callq  fc50 <fopen@plt>
    6daa:	49 89 c6             	mov    %rax,%r14
    6dad:	4c 8d bc 24 30 01 00 	lea    0x130(%rsp),%r15
    6db4:	00 
    6db5:	4c 89 7c 24 10       	mov    %r15,0x10(%rsp)
    6dba:	48 c7 44 24 08 e8 03 	movq   $0x3e8,0x8(%rsp)
    6dc1:	00 00 
    6dc3:	48 8d 7c 24 10       	lea    0x10(%rsp),%rdi
    6dc8:	48 8d 74 24 08       	lea    0x8(%rsp),%rsi
    6dcd:	ba 0a 00 00 00       	mov    $0xa,%edx
    6dd2:	48 89 c1             	mov    %rax,%rcx
    6dd5:	e8 e6 8e 00 00       	callq  fcc0 <__getdelim@plt>
    6dda:	83 f8 ff             	cmp    $0xffffffff,%eax
    6ddd:	75 1a                	jne    6df9 <_Z8setFramePKcP8Autonomaii+0x79>
    6ddf:	48 89 df             	mov    %rbx,%rdi
    6de2:	e8 29 e5 ff ff       	callq  5310 <_Z7refreshP8Autonoma>
    6de7:	48 81 c4 18 05 00 00 	add    $0x518,%rsp
    6dee:	5b                   	pop    %rbx
    6def:	41 5c                	pop    %r12
    6df1:	41 5d                	pop    %r13
    6df3:	41 5e                	pop    %r14
    6df5:	41 5f                	pop    %r15
    6df7:	5d                   	pop    %rbp
    6df8:	c3                   	retq   
    6df9:	f2 41 0f 2a cc       	cvtsi2sd %r12d,%xmm1
    6dfe:	f2 0f 2a c5          	cvtsi2sd %ebp,%xmm0
    6e02:	f2 0f 5e c8          	divsd  %xmm0,%xmm1
    6e06:	f2 0f 11 4c 24 78    	movsd  %xmm1,0x78(%rsp)
    6e0c:	48 8d 6c 24 10       	lea    0x10(%rsp),%rbp
    6e11:	4c 8d 64 24 08       	lea    0x8(%rsp),%r12
    6e16:	49 bd 01 04 00 00 08 	movabs $0x800000401,%r13
    6e1d:	00 00 00 
    6e20:	eb 2c                	jmp    6e4e <_Z8setFramePKcP8Autonomaii+0xce>
    6e22:	48 8b 07             	mov    (%rdi),%rax
    6e25:	ff 50 38             	callq  *0x38(%rax)
    6e28:	4c 89 7c 24 10       	mov    %r15,0x10(%rsp)
    6e2d:	48 c7 44 24 08 e8 03 	movq   $0x3e8,0x8(%rsp)
    6e34:	00 00 
    6e36:	48 89 ef             	mov    %rbp,%rdi
    6e39:	4c 89 e6             	mov    %r12,%rsi
    6e3c:	ba 0a 00 00 00       	mov    $0xa,%edx
    6e41:	4c 89 f1             	mov    %r14,%rcx
    6e44:	e8 77 8e 00 00       	callq  fcc0 <__getdelim@plt>
    6e49:	83 f8 ff             	cmp    $0xffffffff,%eax
    6e4c:	74 91                	je     6ddf <_Z8setFramePKcP8Autonomaii+0x5f>
    6e4e:	0f b6 84 24 30 01 00 	movzbl 0x130(%rsp),%eax
    6e55:	00 
    6e56:	48 83 f8 23          	cmp    $0x23,%rax
    6e5a:	77 06                	ja     6e62 <_Z8setFramePKcP8Autonomaii+0xe2>
    6e5c:	49 0f a3 c5          	bt     %rax,%r13
    6e60:	72 d4                	jb     6e36 <_Z8setFramePKcP8Autonomaii+0xb6>
    6e62:	4c 89 ff             	mov    %r15,%rdi
    6e65:	48 8d 35 04 ad ff ff 	lea    -0x52fc(%rip),%rsi        # 1b70 <_IO_stdin_used+0x270>
    6e6c:	48 8d 94 24 90 00 00 	lea    0x90(%rsp),%rdx
    6e73:	00 
    6e74:	48 8d 8c 24 e0 00 00 	lea    0xe0(%rsp),%rcx
    6e7b:	00 
    6e7c:	4c 8d 44 24 1c       	lea    0x1c(%rsp),%r8
    6e81:	4c 8d 4c 24 20       	lea    0x20(%rsp),%r9
    6e86:	31 c0                	xor    %eax,%eax
    6e88:	4c 8d 94 24 80 00 00 	lea    0x80(%rsp),%r10
    6e8f:	00 
    6e90:	41 52                	push   %r10
    6e92:	4c 8d 94 24 90 00 00 	lea    0x90(%rsp),%r10
    6e99:	00 
    6e9a:	41 52                	push   %r10
    6e9c:	e8 3f 8e 00 00       	callq  fce0 <__isoc99_sscanf@plt>
    6ea1:	48 83 c4 10          	add    $0x10,%rsp
    6ea5:	8b 84 24 90 00 00 00 	mov    0x90(%rsp),%eax
    6eac:	b9 6c 69 6e 65       	mov    $0x656e696c,%ecx
    6eb1:	31 c8                	xor    %ecx,%eax
    6eb3:	8b 8c 24 93 00 00 00 	mov    0x93(%rsp),%ecx
    6eba:	ba 65 61 72 00       	mov    $0x726165,%edx
    6ebf:	31 d1                	xor    %edx,%ecx
    6ec1:	09 c1                	or     %eax,%ecx
    6ec3:	48 8d 05 d6 fd ff ff 	lea    -0x22a(%rip),%rax        # 6ca0 <_Z8identityddd>
    6eca:	74 3a                	je     6f06 <_Z8setFramePKcP8Autonomaii+0x186>
    6ecc:	8b 8c 24 90 00 00 00 	mov    0x90(%rsp),%ecx
    6ed3:	81 f9 73 69 6e 00    	cmp    $0x6e6973,%ecx
    6ed9:	74 24                	je     6eff <_Z8setFramePKcP8Autonomaii+0x17f>
    6edb:	48 8d 05 de fd ff ff 	lea    -0x222(%rip),%rax        # 6cc0 <_Z5expfnddd>
    6ee2:	81 f9 65 78 70 00    	cmp    $0x707865,%ecx
    6ee8:	74 1c                	je     6f06 <_Z8setFramePKcP8Autonomaii+0x186>
    6eea:	81 f9 63 6f 73 00    	cmp    $0x736f63,%ecx
    6ef0:	0f 85 9e 02 00 00    	jne    7194 <_Z8setFramePKcP8Autonomaii+0x414>
    6ef6:	48 8d 05 43 fe ff ff 	lea    -0x1bd(%rip),%rax        # 6d40 <_Z5cosfnddd>
    6efd:	eb 07                	jmp    6f06 <_Z8setFramePKcP8Autonomaii+0x186>
    6eff:	48 8d 05 fa fd ff ff 	lea    -0x206(%rip),%rax        # 6d00 <_Z5sinfnddd>
    6f06:	f2 0f 10 8c 24 88 00 	movsd  0x88(%rsp),%xmm1
    6f0d:	00 00 
    6f0f:	f2 0f 10 94 24 80 00 	movsd  0x80(%rsp),%xmm2
    6f16:	00 00 
    6f18:	f2 0f 10 44 24 78    	movsd  0x78(%rsp),%xmm0
    6f1e:	ff d0                	callq  *%rax
    6f20:	8b 84 24 e0 00 00 00 	mov    0xe0(%rsp),%eax
    6f27:	b9 63 61 6d 65       	mov    $0x656d6163,%ecx
    6f2c:	31 c8                	xor    %ecx,%eax
    6f2e:	8b 8c 24 e3 00 00 00 	mov    0xe3(%rsp),%ecx
    6f35:	ba 65 72 61 00       	mov    $0x617265,%edx
    6f3a:	31 d1                	xor    %edx,%ecx
    6f3c:	09 c1                	or     %eax,%ecx
    6f3e:	0f 84 39 01 00 00    	je     707d <_Z8setFramePKcP8Autonomaii+0x2fd>
    6f44:	8b 84 24 e0 00 00 00 	mov    0xe0(%rsp),%eax
    6f4b:	b9 6f 62 6a 65       	mov    $0x656a626f,%ecx
    6f50:	31 c8                	xor    %ecx,%eax
    6f52:	8b 8c 24 e3 00 00 00 	mov    0xe3(%rsp),%ecx
    6f59:	ba 65 63 74 00       	mov    $0x746365,%edx
    6f5e:	31 d1                	xor    %edx,%ecx
    6f60:	09 c1                	or     %eax,%ecx
    6f62:	0f 85 0f 02 00 00    	jne    7177 <_Z8setFramePKcP8Autonomaii+0x3f7>
    6f68:	8b 74 24 1c          	mov    0x1c(%rsp),%esi
    6f6c:	48 8b 83 b8 00 00 00 	mov    0xb8(%rbx),%rax
    6f73:	85 f6                	test   %esi,%esi
    6f75:	7e 1a                	jle    6f91 <_Z8setFramePKcP8Autonomaii+0x211>
    6f77:	48 8b 8b c0 00 00 00 	mov    0xc0(%rbx),%rcx
    6f7e:	89 f2                	mov    %esi,%edx
    6f80:	48 39 c8             	cmp    %rcx,%rax
    6f83:	0f 84 d6 01 00 00    	je     715f <_Z8setFramePKcP8Autonomaii+0x3df>
    6f89:	48 8b 40 10          	mov    0x10(%rax),%rax
    6f8d:	ff ca                	dec    %edx
    6f8f:	75 ef                	jne    6f80 <_Z8setFramePKcP8Autonomaii+0x200>
    6f91:	48 8b 38             	mov    (%rax),%rdi
    6f94:	81 7c 24 20 79 61 77 	cmpl   $0x776179,0x20(%rsp)
    6f9b:	00 
    6f9c:	0f 84 80 fe ff ff    	je     6e22 <_Z8setFramePKcP8Autonomaii+0xa2>
    6fa2:	8b 44 24 20          	mov    0x20(%rsp),%eax
    6fa6:	b9 70 69 74 63       	mov    $0x63746970,%ecx
    6fab:	31 c8                	xor    %ecx,%eax
    6fad:	0f b7 4c 24 24       	movzwl 0x24(%rsp),%ecx
    6fb2:	83 f1 68             	xor    $0x68,%ecx
    6fb5:	09 c1                	or     %eax,%ecx
    6fb7:	0f 84 23 01 00 00    	je     70e0 <_Z8setFramePKcP8Autonomaii+0x360>
    6fbd:	8b 44 24 20          	mov    0x20(%rsp),%eax
    6fc1:	b9 72 6f 6c 6c       	mov    $0x6c6c6f72,%ecx
    6fc6:	31 c8                	xor    %ecx,%eax
    6fc8:	0f b6 4c 24 24       	movzbl 0x24(%rsp),%ecx
    6fcd:	09 c1                	or     %eax,%ecx
    6fcf:	0f 84 16 01 00 00    	je     70eb <_Z8setFramePKcP8Autonomaii+0x36b>
    6fd5:	48 8b 44 24 20       	mov    0x20(%rsp),%rax
    6fda:	48 b9 74 65 78 74 75 	movabs $0x5865727574786574,%rcx
    6fe1:	72 65 58 
    6fe4:	48 31 c8             	xor    %rcx,%rax
    6fe7:	0f b6 4c 24 28       	movzbl 0x28(%rsp),%ecx
    6fec:	48 09 c1             	or     %rax,%rcx
    6fef:	0f 84 0e 01 00 00    	je     7103 <_Z8setFramePKcP8Autonomaii+0x383>
    6ff5:	48 8b 44 24 20       	mov    0x20(%rsp),%rax
    6ffa:	48 b9 74 65 78 74 75 	movabs $0x5965727574786574,%rcx
    7001:	72 65 59 
    7004:	48 31 c8             	xor    %rcx,%rax
    7007:	0f b6 4c 24 28       	movzbl 0x28(%rsp),%ecx
    700c:	48 09 c1             	or     %rax,%rcx
    700f:	0f 84 05 01 00 00    	je     711a <_Z8setFramePKcP8Autonomaii+0x39a>
    7015:	8b 44 24 20          	mov    0x20(%rsp),%eax
    7019:	b9 6d 61 70 58       	mov    $0x5870616d,%ecx
    701e:	31 c8                	xor    %ecx,%eax
    7020:	0f b6 4c 24 24       	movzbl 0x24(%rsp),%ecx
    7025:	09 c1                	or     %eax,%ecx
    7027:	0f 84 0b 01 00 00    	je     7138 <_Z8setFramePKcP8Autonomaii+0x3b8>
    702d:	8b 44 24 20          	mov    0x20(%rsp),%eax
    7031:	b9 6d 61 70 59       	mov    $0x5970616d,%ecx
    7036:	31 c8                	xor    %ecx,%eax
    7038:	0f b6 4c 24 24       	movzbl 0x24(%rsp),%ecx
    703d:	09 c1                	or     %eax,%ecx
    703f:	0f 84 00 01 00 00    	je     7145 <_Z8setFramePKcP8Autonomaii+0x3c5>
    7045:	48 8b 44 24 20       	mov    0x20(%rsp),%rax
    704a:	48 b9 6d 61 70 4f 66 	movabs $0x5966664f70616d,%rcx
    7051:	66 59 00 
    7054:	48 39 c8             	cmp    %rcx,%rax
    7057:	0f 84 f5 00 00 00    	je     7152 <_Z8setFramePKcP8Autonomaii+0x3d2>
    705d:	48 b9 6d 61 70 4f 66 	movabs $0x5866664f70616d,%rcx
    7064:	66 58 00 
    7067:	48 39 c8             	cmp    %rcx,%rax
    706a:	0f 85 4d 01 00 00    	jne    71bd <_Z8setFramePKcP8Autonomaii+0x43d>
    7070:	f2 0f 11 87 90 00 00 	movsd  %xmm0,0x90(%rdi)
    7077:	00 
    7078:	e9 ab fd ff ff       	jmpq   6e28 <_Z8setFramePKcP8Autonomaii+0xa8>
    707d:	8b 44 24 20          	mov    0x20(%rsp),%eax
    7081:	3d 79 61 77 00       	cmp    $0x776179,%eax
    7086:	75 0d                	jne    7095 <_Z8setFramePKcP8Autonomaii+0x315>
    7088:	48 89 df             	mov    %rbx,%rdi
    708b:	e8 c0 15 00 00       	callq  8650 <_ZN6Camera6setYawEd>
    7090:	e9 93 fd ff ff       	jmpq   6e28 <_Z8setFramePKcP8Autonomaii+0xa8>
    7095:	8b 4c 24 20          	mov    0x20(%rsp),%ecx
    7099:	ba 70 69 74 63       	mov    $0x63746970,%edx
    709e:	31 d1                	xor    %edx,%ecx
    70a0:	0f b7 54 24 24       	movzwl 0x24(%rsp),%edx
    70a5:	83 f2 68             	xor    $0x68,%edx
    70a8:	09 ca                	or     %ecx,%edx
    70aa:	74 4a                	je     70f6 <_Z8setFramePKcP8Autonomaii+0x376>
    70ac:	8b 4c 24 20          	mov    0x20(%rsp),%ecx
    70b0:	ba 72 6f 6c 6c       	mov    $0x6c6c6f72,%edx
    70b5:	31 d1                	xor    %edx,%ecx
    70b7:	0f b6 54 24 24       	movzbl 0x24(%rsp),%edx
    70bc:	09 ca                	or     %ecx,%edx
    70be:	74 4d                	je     710d <_Z8setFramePKcP8Autonomaii+0x38d>
    70c0:	66 83 f8 7a          	cmp    $0x7a,%ax
    70c4:	74 68                	je     712e <_Z8setFramePKcP8Autonomaii+0x3ae>
    70c6:	0f b7 c0             	movzwl %ax,%eax
    70c9:	83 f8 79             	cmp    $0x79,%eax
    70cc:	74 56                	je     7124 <_Z8setFramePKcP8Autonomaii+0x3a4>
    70ce:	83 f8 78             	cmp    $0x78,%eax
    70d1:	0f 85 dd 00 00 00    	jne    71b4 <_Z8setFramePKcP8Autonomaii+0x434>
    70d7:	f2 0f 11 03          	movsd  %xmm0,(%rbx)
    70db:	e9 48 fd ff ff       	jmpq   6e28 <_Z8setFramePKcP8Autonomaii+0xa8>
    70e0:	48 8b 07             	mov    (%rdi),%rax
    70e3:	ff 50 40             	callq  *0x40(%rax)
    70e6:	e9 3d fd ff ff       	jmpq   6e28 <_Z8setFramePKcP8Autonomaii+0xa8>
    70eb:	48 8b 07             	mov    (%rdi),%rax
    70ee:	ff 50 48             	callq  *0x48(%rax)
    70f1:	e9 32 fd ff ff       	jmpq   6e28 <_Z8setFramePKcP8Autonomaii+0xa8>
    70f6:	48 89 df             	mov    %rbx,%rdi
    70f9:	e8 22 17 00 00       	callq  8820 <_ZN6Camera8setPitchEd>
    70fe:	e9 25 fd ff ff       	jmpq   6e28 <_Z8setFramePKcP8Autonomaii+0xa8>
    7103:	f2 0f 11 47 70       	movsd  %xmm0,0x70(%rdi)
    7108:	e9 1b fd ff ff       	jmpq   6e28 <_Z8setFramePKcP8Autonomaii+0xa8>
    710d:	48 89 df             	mov    %rbx,%rdi
    7110:	e8 7b 18 00 00       	callq  8990 <_ZN6Camera7setRollEd>
    7115:	e9 0e fd ff ff       	jmpq   6e28 <_Z8setFramePKcP8Autonomaii+0xa8>
    711a:	f2 0f 11 47 78       	movsd  %xmm0,0x78(%rdi)
    711f:	e9 04 fd ff ff       	jmpq   6e28 <_Z8setFramePKcP8Autonomaii+0xa8>
    7124:	f2 0f 11 43 08       	movsd  %xmm0,0x8(%rbx)
    7129:	e9 fa fc ff ff       	jmpq   6e28 <_Z8setFramePKcP8Autonomaii+0xa8>
    712e:	f2 0f 11 43 10       	movsd  %xmm0,0x10(%rbx)
    7133:	e9 f0 fc ff ff       	jmpq   6e28 <_Z8setFramePKcP8Autonomaii+0xa8>
    7138:	f2 0f 11 87 80 00 00 	movsd  %xmm0,0x80(%rdi)
    713f:	00 
    7140:	e9 e3 fc ff ff       	jmpq   6e28 <_Z8setFramePKcP8Autonomaii+0xa8>
    7145:	f2 0f 11 87 88 00 00 	movsd  %xmm0,0x88(%rdi)
    714c:	00 
    714d:	e9 d6 fc ff ff       	jmpq   6e28 <_Z8setFramePKcP8Autonomaii+0xa8>
    7152:	f2 0f 11 87 98 00 00 	movsd  %xmm0,0x98(%rdi)
    7159:	00 
    715a:	e9 c9 fc ff ff       	jmpq   6e28 <_Z8setFramePKcP8Autonomaii+0xa8>
    715f:	48 8d 3d 58 ae ff ff 	lea    -0x51a8(%rip),%rdi        # 1fbe <_IO_stdin_used+0x6be>
    7166:	31 c0                	xor    %eax,%eax
    7168:	e8 93 8b 00 00       	callq  fd00 <printf@plt>
    716d:	bf 01 00 00 00       	mov    $0x1,%edi
    7172:	e8 59 8b 00 00       	callq  fcd0 <exit@plt>
    7177:	48 8d 3d dc ad ff ff 	lea    -0x5224(%rip),%rdi        # 1f5a <_IO_stdin_used+0x65a>
    717e:	48 8d 74 24 20       	lea    0x20(%rsp),%rsi
    7183:	31 c0                	xor    %eax,%eax
    7185:	e8 76 8b 00 00       	callq  fd00 <printf@plt>
    718a:	bf 01 00 00 00       	mov    $0x1,%edi
    718f:	e8 3c 8b 00 00       	callq  fcd0 <exit@plt>
    7194:	48 8d 3d aa b1 ff ff 	lea    -0x4e56(%rip),%rdi        # 2345 <_IO_stdin_used+0xa45>
    719b:	48 8d b4 24 90 00 00 	lea    0x90(%rsp),%rsi
    71a2:	00 
    71a3:	31 c0                	xor    %eax,%eax
    71a5:	e8 56 8b 00 00       	callq  fd00 <printf@plt>
    71aa:	bf 01 00 00 00       	mov    $0x1,%edi
    71af:	e8 1c 8b 00 00       	callq  fcd0 <exit@plt>
    71b4:	48 8d 3d 3d ac ff ff 	lea    -0x53c3(%rip),%rdi        # 1df8 <_IO_stdin_used+0x4f8>
    71bb:	eb c1                	jmp    717e <_Z8setFramePKcP8Autonomaii+0x3fe>
    71bd:	48 8d 3d 98 ae ff ff 	lea    -0x5168(%rip),%rdi        # 205c <_IO_stdin_used+0x75c>
    71c4:	eb b8                	jmp    717e <_Z8setFramePKcP8Autonomaii+0x3fe>
    71c6:	66 2e 0f 1f 84 00 00 	nopw   %cs:0x0(%rax,%rax,1)
    71cd:	00 00 00 

00000000000071d0 <main>:
    71d0:	55                   	push   %rbp
    71d1:	41 57                	push   %r15
    71d3:	41 56                	push   %r14
    71d5:	41 55                	push   %r13
    71d7:	41 54                	push   %r12
    71d9:	53                   	push   %rbx
    71da:	48 81 ec e8 08 00 00 	sub    $0x8e8,%rsp
    71e1:	83 ff 02             	cmp    $0x2,%edi
    71e4:	0f 8c 66 02 00 00    	jl     7450 <main+0x280>
    71ea:	49 89 f4             	mov    %rsi,%r12
    71ed:	89 fd                	mov    %edi,%ebp
    71ef:	41 b7 01             	mov    $0x1,%r15b
    71f2:	bb 01 00 00 00       	mov    $0x1,%ebx
    71f7:	b0 01                	mov    $0x1,%al
    71f9:	89 44 24 10          	mov    %eax,0x10(%rsp)
    71fd:	31 c0                	xor    %eax,%eax
    71ff:	48 89 44 24 08       	mov    %rax,0x8(%rsp)
    7204:	31 c0                	xor    %eax,%eax
    7206:	48 89 44 24 18       	mov    %rax,0x18(%rsp)
    720b:	31 c0                	xor    %eax,%eax
    720d:	48 89 44 24 20       	mov    %rax,0x20(%rsp)
    7212:	41 be 01 00 00 00    	mov    $0x1,%r14d
    7218:	eb 29                	jmp    7243 <main+0x73>
    721a:	66 0f 1f 44 00 00    	nopw   0x0(%rax,%rax,1)
    7220:	48 63 c3             	movslq %ebx,%rax
    7223:	49 8b 3c c4          	mov    (%r12,%rax,8),%rdi
    7227:	31 f6                	xor    %esi,%esi
    7229:	ba 0a 00 00 00       	mov    $0xa,%edx
    722e:	e8 3d 8b 00 00       	callq  fd70 <strtol@plt>
    7233:	89 05 a3 b1 00 00    	mov    %eax,0xb1a3(%rip)        # 123dc <H>
    7239:	ff c3                	inc    %ebx
    723b:	39 eb                	cmp    %ebp,%ebx
    723d:	0f 8d 38 02 00 00    	jge    747b <main+0x2ab>
    7243:	48 63 c3             	movslq %ebx,%rax
    7246:	4d 8b 2c c4          	mov    (%r12,%rax,8),%r13
    724a:	4c 89 ef             	mov    %r13,%rdi
    724d:	48 8d 35 b3 aa ff ff 	lea    -0x554d(%rip),%rsi        # 1d07 <_IO_stdin_used+0x407>
    7254:	e8 57 8a 00 00       	callq  fcb0 <strcmp@plt>
    7259:	85 c0                	test   %eax,%eax
    725b:	0f 84 df 00 00 00    	je     7340 <main+0x170>
    7261:	4c 89 ef             	mov    %r13,%rdi
    7264:	48 8d 35 19 a9 ff ff 	lea    -0x56e7(%rip),%rsi        # 1b84 <_IO_stdin_used+0x284>
    726b:	e8 40 8a 00 00       	callq  fcb0 <strcmp@plt>
    7270:	85 c0                	test   %eax,%eax
    7272:	0f 84 e8 00 00 00    	je     7360 <main+0x190>
    7278:	4c 89 ef             	mov    %r13,%rdi
    727b:	48 8d 35 da b1 ff ff 	lea    -0x4e26(%rip),%rsi        # 245c <_IO_stdin_used+0xb5c>
    7282:	e8 29 8a 00 00       	callq  fcb0 <strcmp@plt>
    7287:	85 c0                	test   %eax,%eax
    7289:	0f 84 03 01 00 00    	je     7392 <main+0x1c2>
    728f:	4c 89 ef             	mov    %r13,%rdi
    7292:	48 8d 35 ee a8 ff ff 	lea    -0x5712(%rip),%rsi        # 1b87 <_IO_stdin_used+0x287>
    7299:	e8 12 8a 00 00       	callq  fcb0 <strcmp@plt>
    729e:	85 c0                	test   %eax,%eax
    72a0:	0f 84 1b 01 00 00    	je     73c1 <main+0x1f1>
    72a6:	4c 89 ef             	mov    %r13,%rdi
    72a9:	48 8d 35 d1 b1 ff ff 	lea    -0x4e2f(%rip),%rsi        # 2481 <_IO_stdin_used+0xb81>
    72b0:	e8 fb 89 00 00       	callq  fcb0 <strcmp@plt>
    72b5:	85 c0                	test   %eax,%eax
    72b7:	0f 84 29 01 00 00    	je     73e6 <main+0x216>
    72bd:	4c 89 ef             	mov    %r13,%rdi
    72c0:	48 8d 35 18 ad ff ff 	lea    -0x52e8(%rip),%rsi        # 1fdf <_IO_stdin_used+0x6df>
    72c7:	e8 e4 89 00 00       	callq  fcb0 <strcmp@plt>
    72cc:	85 c0                	test   %eax,%eax
    72ce:	0f 84 37 01 00 00    	je     740b <main+0x23b>
    72d4:	4c 89 ef             	mov    %r13,%rdi
    72d7:	48 8d 35 63 ab ff ff 	lea    -0x549d(%rip),%rsi        # 1e41 <_IO_stdin_used+0x541>
    72de:	e8 cd 89 00 00       	callq  fcb0 <strcmp@plt>
    72e3:	85 c0                	test   %eax,%eax
    72e5:	0f 84 45 01 00 00    	je     7430 <main+0x260>
    72eb:	4c 89 ef             	mov    %r13,%rdi
    72ee:	48 8d 35 1e ad ff ff 	lea    -0x52e2(%rip),%rsi        # 2013 <_IO_stdin_used+0x713>
    72f5:	e8 b6 89 00 00       	callq  fcb0 <strcmp@plt>
    72fa:	85 c0                	test   %eax,%eax
    72fc:	0f 84 39 01 00 00    	je     743b <main+0x26b>
    7302:	4c 89 ef             	mov    %r13,%rdi
    7305:	48 8d 35 c0 b0 ff ff 	lea    -0x4f40(%rip),%rsi        # 23cc <_IO_stdin_used+0xacc>
    730c:	e8 9f 89 00 00       	callq  fcb0 <strcmp@plt>
    7311:	85 c0                	test   %eax,%eax
    7313:	0f 84 2f 01 00 00    	je     7448 <main+0x278>
    7319:	4c 89 ef             	mov    %r13,%rdi
    731c:	48 8d 35 fb ac ff ff 	lea    -0x5305(%rip),%rsi        # 201e <_IO_stdin_used+0x71e>
    7323:	e8 88 89 00 00       	callq  fcb0 <strcmp@plt>
    7328:	41 b7 01             	mov    $0x1,%r15b
    732b:	85 c0                	test   %eax,%eax
    732d:	0f 84 06 ff ff ff    	je     7239 <main+0x69>
    7333:	e9 27 05 00 00       	jmpq   785f <main+0x68f>
    7338:	0f 1f 84 00 00 00 00 	nopl   0x0(%rax,%rax,1)
    733f:	00 
    7340:	ff c3                	inc    %ebx
    7342:	39 eb                	cmp    %ebp,%ebx
    7344:	0f 8c d6 fe ff ff    	jl     7220 <main+0x50>
    734a:	48 8d 3d d0 ae ff ff 	lea    -0x5130(%rip),%rdi        # 2221 <_IO_stdin_used+0x921>
    7351:	31 c0                	xor    %eax,%eax
    7353:	e8 a8 89 00 00       	callq  fd00 <printf@plt>
    7358:	e9 c3 fe ff ff       	jmpq   7220 <main+0x50>
    735d:	0f 1f 00             	nopl   (%rax)
    7360:	ff c3                	inc    %ebx
    7362:	39 eb                	cmp    %ebp,%ebx
    7364:	7c 0e                	jl     7374 <main+0x1a4>
    7366:	48 8d 3d 41 a6 ff ff 	lea    -0x59bf(%rip),%rdi        # 19ae <_IO_stdin_used+0xae>
    736d:	31 c0                	xor    %eax,%eax
    736f:	e8 8c 89 00 00       	callq  fd00 <printf@plt>
    7374:	48 63 c3             	movslq %ebx,%rax
    7377:	49 8b 3c c4          	mov    (%r12,%rax,8),%rdi
    737b:	31 f6                	xor    %esi,%esi
    737d:	ba 0a 00 00 00       	mov    $0xa,%edx
    7382:	e8 e9 89 00 00       	callq  fd70 <strtol@plt>
    7387:	89 05 4b b0 00 00    	mov    %eax,0xb04b(%rip)        # 123d8 <W>
    738d:	e9 a7 fe ff ff       	jmpq   7239 <main+0x69>
    7392:	ff c3                	inc    %ebx
    7394:	39 eb                	cmp    %ebp,%ebx
    7396:	7c 0e                	jl     73a6 <main+0x1d6>
    7398:	48 8d 3d 42 ae ff ff 	lea    -0x51be(%rip),%rdi        # 21e1 <_IO_stdin_used+0x8e1>
    739f:	31 c0                	xor    %eax,%eax
    73a1:	e8 5a 89 00 00       	callq  fd00 <printf@plt>
    73a6:	48 63 c3             	movslq %ebx,%rax
    73a9:	49 8b 3c c4          	mov    (%r12,%rax,8),%rdi
    73ad:	31 f6                	xor    %esi,%esi
    73af:	ba 0a 00 00 00       	mov    $0xa,%edx
    73b4:	e8 b7 89 00 00       	callq  fd70 <strtol@plt>
    73b9:	49 89 c6             	mov    %rax,%r14
    73bc:	e9 78 fe ff ff       	jmpq   7239 <main+0x69>
    73c1:	ff c3                	inc    %ebx
    73c3:	39 eb                	cmp    %ebp,%ebx
    73c5:	7c 0e                	jl     73d5 <main+0x205>
    73c7:	48 8d 3d d4 ad ff ff 	lea    -0x522c(%rip),%rdi        # 21a2 <_IO_stdin_used+0x8a2>
    73ce:	31 c0                	xor    %eax,%eax
    73d0:	e8 2b 89 00 00       	callq  fd00 <printf@plt>
    73d5:	48 63 c3             	movslq %ebx,%rax
    73d8:	49 8b 04 c4          	mov    (%r12,%rax,8),%rax
    73dc:	48 89 44 24 08       	mov    %rax,0x8(%rsp)
    73e1:	e9 53 fe ff ff       	jmpq   7239 <main+0x69>
    73e6:	ff c3                	inc    %ebx
    73e8:	39 eb                	cmp    %ebp,%ebx
    73ea:	7c 0e                	jl     73fa <main+0x22a>
    73ec:	48 8d 3d 72 b1 ff ff 	lea    -0x4e8e(%rip),%rdi        # 2565 <_IO_stdin_used+0xc65>
    73f3:	31 c0                	xor    %eax,%eax
    73f5:	e8 06 89 00 00       	callq  fd00 <printf@plt>
    73fa:	48 63 c3             	movslq %ebx,%rax
    73fd:	49 8b 04 c4          	mov    (%r12,%rax,8),%rax
    7401:	48 89 44 24 20       	mov    %rax,0x20(%rsp)
    7406:	e9 2e fe ff ff       	jmpq   7239 <main+0x69>
    740b:	ff c3                	inc    %ebx
    740d:	39 eb                	cmp    %ebp,%ebx
    740f:	7c 0e                	jl     741f <main+0x24f>
    7411:	48 8d 3d 73 af ff ff 	lea    -0x508d(%rip),%rdi        # 238b <_IO_stdin_used+0xa8b>
    7418:	31 c0                	xor    %eax,%eax
    741a:	e8 e1 88 00 00       	callq  fd00 <printf@plt>
    741f:	48 63 c3             	movslq %ebx,%rax
    7422:	49 8b 04 c4          	mov    (%r12,%rax,8),%rax
    7426:	48 89 44 24 18       	mov    %rax,0x18(%rsp)
    742b:	e9 09 fe ff ff       	jmpq   7239 <main+0x69>
    7430:	b0 01                	mov    $0x1,%al
    7432:	89 44 24 10          	mov    %eax,0x10(%rsp)
    7436:	e9 fe fd ff ff       	jmpq   7239 <main+0x69>
    743b:	c7 44 24 10 00 00 00 	movl   $0x0,0x10(%rsp)
    7442:	00 
    7443:	e9 f1 fd ff ff       	jmpq   7239 <main+0x69>
    7448:	45 31 ff             	xor    %r15d,%r15d
    744b:	e9 e9 fd ff ff       	jmpq   7239 <main+0x69>
    7450:	48 8d 05 53 a9 ff ff 	lea    -0x56ad(%rip),%rax        # 1daa <_IO_stdin_used+0x4aa>
    7457:	48 89 44 24 08       	mov    %rax,0x8(%rsp)
    745c:	41 be 01 00 00 00    	mov    $0x1,%r14d
    7462:	31 c0                	xor    %eax,%eax
    7464:	48 89 44 24 28       	mov    %rax,0x28(%rsp)
    7469:	31 c0                	xor    %eax,%eax
    746b:	48 89 44 24 10       	mov    %rax,0x10(%rsp)
    7470:	31 c0                	xor    %eax,%eax
    7472:	48 89 44 24 18       	mov    %rax,0x18(%rsp)
    7477:	31 ff                	xor    %edi,%edi
    7479:	eb 50                	jmp    74cb <main+0x2fb>
    747b:	41 f6 c7 01          	test   $0x1,%r15b
    747f:	0f 94 c0             	sete   %al
    7482:	48 89 44 24 28       	mov    %rax,0x28(%rsp)
    7487:	f6 44 24 10 01       	testb  $0x1,0x10(%rsp)
    748c:	0f 94 c0             	sete   %al
    748f:	48 89 44 24 10       	mov    %rax,0x10(%rsp)
    7494:	48 83 7c 24 08 00    	cmpq   $0x0,0x8(%rsp)
    749a:	75 2a                	jne    74c6 <main+0x2f6>
    749c:	41 f6 c7 01          	test   $0x1,%r15b
    74a0:	48 8d 05 41 ac ff ff 	lea    -0x53bf(%rip),%rax        # 20e8 <_IO_stdin_used+0x7e8>
    74a7:	48 8d 0d fc a8 ff ff 	lea    -0x5704(%rip),%rcx        # 1daa <_IO_stdin_used+0x4aa>
    74ae:	48 0f 44 c8          	cmove  %rax,%rcx
    74b2:	41 83 fe 01          	cmp    $0x1,%r14d
    74b6:	48 8d 05 9a ad ff ff 	lea    -0x5266(%rip),%rax        # 2257 <_IO_stdin_used+0x957>
    74bd:	48 0f 44 c1          	cmove  %rcx,%rax
    74c1:	48 89 44 24 08       	mov    %rax,0x8(%rsp)
    74c6:	48 8b 7c 24 20       	mov    0x20(%rsp),%rdi
    74cb:	e8 30 e9 ff ff       	callq  5e00 <_Z12createInputsPKc>
    74d0:	49 89 c5             	mov    %rax,%r13
    74d3:	48 8d 7c 24 30       	lea    0x30(%rsp),%rdi
    74d8:	31 f6                	xor    %esi,%esi
    74da:	e8 a1 88 00 00       	callq  fd80 <gettimeofday@plt>
    74df:	45 85 f6             	test   %r14d,%r14d
    74e2:	0f 8e b5 02 00 00    	jle    779d <main+0x5cd>
    74e8:	80 7c 24 28 00       	cmpb   $0x0,0x28(%rsp)
    74ed:	0f 84 e4 00 00 00    	je     75d7 <main+0x407>
    74f3:	4c 8d 64 24 40       	lea    0x40(%rsp),%r12
    74f8:	48 8d 1d 3e a5 ff ff 	lea    -0x5ac2(%rip),%rbx        # 1a3d <_IO_stdin_used+0x13d>
    74ff:	31 ed                	xor    %ebp,%ebp
    7501:	e9 92 00 00 00       	jmpq   7598 <main+0x3c8>
    7506:	66 2e 0f 1f 84 00 00 	nopw   %cs:0x0(%rax,%rax,1)
    750d:	00 00 00 
    7510:	48 8d 15 d1 a5 ff ff 	lea    -0x5a2f(%rip),%rdx        # 1ae8 <_IO_stdin_used+0x1e8>
    7517:	48 8b 4c 24 08       	mov    0x8(%rsp),%rcx
    751c:	31 c0                	xor    %eax,%eax
    751e:	e8 4d 87 00 00       	callq  fc70 <snprintf@plt>
    7523:	4c 89 e7             	mov    %r12,%rdi
    7526:	48 8d 35 f6 a9 ff ff 	lea    -0x560a(%rip),%rsi        # 1f23 <_IO_stdin_used+0x623>
    752d:	e8 1e 87 00 00       	callq  fc50 <fopen@plt>
    7532:	49 89 c7             	mov    %rax,%r15
    7535:	8b 15 9d ae 00 00    	mov    0xae9d(%rip),%edx        # 123d8 <W>
    753b:	8b 0d 9b ae 00 00    	mov    0xae9b(%rip),%ecx        # 123dc <H>
    7541:	48 89 c7             	mov    %rax,%rdi
    7544:	48 8d 35 55 a9 ff ff 	lea    -0x56ab(%rip),%rsi        # 1ea0 <_IO_stdin_used+0x5a0>
    754b:	31 c0                	xor    %eax,%eax
    754d:	e8 de 86 00 00       	callq  fc30 <fprintf@plt>
    7552:	48 8b 3d e7 af 00 00 	mov    0xafe7(%rip),%rdi        # 12540 <DATA>
    7559:	8b 05 79 ae 00 00    	mov    0xae79(%rip),%eax        # 123d8 <W>
    755f:	0f af 05 76 ae 00 00 	imul   0xae76(%rip),%eax        # 123dc <H>
    7566:	8d 04 40             	lea    (%rax,%rax,2),%eax
    7569:	48 63 d0             	movslq %eax,%rdx
    756c:	be 01 00 00 00       	mov    $0x1,%esi
    7571:	4c 89 f9             	mov    %r15,%rcx
    7574:	e8 c7 86 00 00       	callq  fc40 <fwrite@plt>
    7579:	4c 89 ff             	mov    %r15,%rdi
    757c:	e8 df 86 00 00       	callq  fc60 <fclose@plt>
    7581:	48 89 df             	mov    %rbx,%rdi
    7584:	89 ee                	mov    %ebp,%esi
    7586:	31 c0                	xor    %eax,%eax
    7588:	e8 73 87 00 00       	callq  fd00 <printf@plt>
    758d:	ff c5                	inc    %ebp
    758f:	41 39 ee             	cmp    %ebp,%r14d
    7592:	0f 84 05 02 00 00    	je     779d <main+0x5cd>
    7598:	48 8b 7c 24 18       	mov    0x18(%rsp),%rdi
    759d:	4c 89 ee             	mov    %r13,%rsi
    75a0:	89 ea                	mov    %ebp,%edx
    75a2:	44 89 f1             	mov    %r14d,%ecx
    75a5:	e8 d6 f7 ff ff       	callq  6d80 <_Z8setFramePKcP8Autonomaii>
    75aa:	be c8 00 00 00       	mov    $0xc8,%esi
    75af:	4c 89 e7             	mov    %r12,%rdi
    75b2:	41 83 fe 01          	cmp    $0x1,%r14d
    75b6:	0f 84 54 ff ff ff    	je     7510 <main+0x340>
    75bc:	48 8d 15 1f aa ff ff 	lea    -0x55e1(%rip),%rdx        # 1fe2 <_IO_stdin_used+0x6e2>
    75c3:	48 8b 4c 24 08       	mov    0x8(%rsp),%rcx
    75c8:	41 89 e8             	mov    %ebp,%r8d
    75cb:	31 c0                	xor    %eax,%eax
    75cd:	e8 9e 86 00 00       	callq  fc70 <snprintf@plt>
    75d2:	e9 4c ff ff ff       	jmpq   7523 <main+0x353>
    75d7:	41 83 fe 01          	cmp    $0x1,%r14d
    75db:	0f 85 d0 00 00 00    	jne    76b1 <main+0x4e1>
    75e1:	48 8b 7c 24 18       	mov    0x18(%rsp),%rdi
    75e6:	4c 89 ee             	mov    %r13,%rsi
    75e9:	31 d2                	xor    %edx,%edx
    75eb:	b9 01 00 00 00       	mov    $0x1,%ecx
    75f0:	e8 8b f7 ff ff       	callq  6d80 <_Z8setFramePKcP8Autonomaii>
    75f5:	48 8d 15 ec a4 ff ff 	lea    -0x5b14(%rip),%rdx        # 1ae8 <_IO_stdin_used+0x1e8>
    75fc:	48 8d 5c 24 40       	lea    0x40(%rsp),%rbx
    7601:	be c8 00 00 00       	mov    $0xc8,%esi
    7606:	48 89 df             	mov    %rbx,%rdi
    7609:	48 8b 4c 24 08       	mov    0x8(%rsp),%rcx
    760e:	31 c0                	xor    %eax,%eax
    7610:	e8 5b 86 00 00       	callq  fc70 <snprintf@plt>
    7615:	48 8d 15 fb a3 ff ff 	lea    -0x5c05(%rip),%rdx        # 1a17 <_IO_stdin_used+0x117>
    761c:	4c 8d bc 24 10 01 00 	lea    0x110(%rsp),%r15
    7623:	00 
    7624:	be d0 07 00 00       	mov    $0x7d0,%esi
    7629:	4c 89 ff             	mov    %r15,%rdi
    762c:	48 89 d9             	mov    %rbx,%rcx
    762f:	31 c0                	xor    %eax,%eax
    7631:	e8 3a 86 00 00       	callq  fc70 <snprintf@plt>
    7636:	4c 89 ff             	mov    %r15,%rdi
    7639:	e8 42 86 00 00       	callq  fc80 <puts@plt>
    763e:	48 8d 35 de a8 ff ff 	lea    -0x5722(%rip),%rsi        # 1f23 <_IO_stdin_used+0x623>
    7645:	4c 89 ff             	mov    %r15,%rdi
    7648:	e8 43 86 00 00       	callq  fc90 <popen@plt>
    764d:	48 89 c3             	mov    %rax,%rbx
    7650:	8b 15 82 ad 00 00    	mov    0xad82(%rip),%edx        # 123d8 <W>
    7656:	8b 0d 80 ad 00 00    	mov    0xad80(%rip),%ecx        # 123dc <H>
    765c:	48 8d 35 3d a8 ff ff 	lea    -0x57c3(%rip),%rsi        # 1ea0 <_IO_stdin_used+0x5a0>
    7663:	48 89 c7             	mov    %rax,%rdi
    7666:	31 c0                	xor    %eax,%eax
    7668:	e8 c3 85 00 00       	callq  fc30 <fprintf@plt>
    766d:	48 8b 3d cc ae 00 00 	mov    0xaecc(%rip),%rdi        # 12540 <DATA>
    7674:	8b 05 5e ad 00 00    	mov    0xad5e(%rip),%eax        # 123d8 <W>
    767a:	0f af 05 5b ad 00 00 	imul   0xad5b(%rip),%eax        # 123dc <H>
    7681:	8d 04 40             	lea    (%rax,%rax,2),%eax
    7684:	48 63 d0             	movslq %eax,%rdx
    7687:	be 01 00 00 00       	mov    $0x1,%esi
    768c:	48 89 d9             	mov    %rbx,%rcx
    768f:	e8 ac 85 00 00       	callq  fc40 <fwrite@plt>
    7694:	48 89 df             	mov    %rbx,%rdi
    7697:	e8 04 86 00 00       	callq  fca0 <pclose@plt>
    769c:	48 8d 3d 9a a3 ff ff 	lea    -0x5c66(%rip),%rdi        # 1a3d <_IO_stdin_used+0x13d>
    76a3:	31 f6                	xor    %esi,%esi
    76a5:	31 c0                	xor    %eax,%eax
    76a7:	e8 54 86 00 00       	callq  fd00 <printf@plt>
    76ac:	e9 ec 00 00 00       	jmpq   779d <main+0x5cd>
    76b1:	48 8d 6c 24 40       	lea    0x40(%rsp),%rbp
    76b6:	4c 8d a4 24 10 01 00 	lea    0x110(%rsp),%r12
    76bd:	00 
    76be:	45 31 ff             	xor    %r15d,%r15d
    76c1:	66 66 66 66 66 66 2e 	data16 data16 data16 data16 data16 nopw %cs:0x0(%rax,%rax,1)
    76c8:	0f 1f 84 00 00 00 00 
    76cf:	00 
    76d0:	48 8b 7c 24 18       	mov    0x18(%rsp),%rdi
    76d5:	4c 89 ee             	mov    %r13,%rsi
    76d8:	44 89 fa             	mov    %r15d,%edx
    76db:	44 89 f1             	mov    %r14d,%ecx
    76de:	e8 9d f6 ff ff       	callq  6d80 <_Z8setFramePKcP8Autonomaii>
    76e3:	be c8 00 00 00       	mov    $0xc8,%esi
    76e8:	48 89 ef             	mov    %rbp,%rdi
    76eb:	48 8d 15 25 a4 ff ff 	lea    -0x5bdb(%rip),%rdx        # 1b17 <_IO_stdin_used+0x217>
    76f2:	48 8b 4c 24 08       	mov    0x8(%rsp),%rcx
    76f7:	45 89 f8             	mov    %r15d,%r8d
    76fa:	31 c0                	xor    %eax,%eax
    76fc:	e8 6f 85 00 00       	callq  fc70 <snprintf@plt>
    7701:	be d0 07 00 00       	mov    $0x7d0,%esi
    7706:	4c 89 e7             	mov    %r12,%rdi
    7709:	48 8d 15 07 a3 ff ff 	lea    -0x5cf9(%rip),%rdx        # 1a17 <_IO_stdin_used+0x117>
    7710:	48 89 e9             	mov    %rbp,%rcx
    7713:	31 c0                	xor    %eax,%eax
    7715:	e8 56 85 00 00       	callq  fc70 <snprintf@plt>
    771a:	4c 89 e7             	mov    %r12,%rdi
    771d:	e8 5e 85 00 00       	callq  fc80 <puts@plt>
    7722:	4c 89 e7             	mov    %r12,%rdi
    7725:	48 8d 35 f7 a7 ff ff 	lea    -0x5809(%rip),%rsi        # 1f23 <_IO_stdin_used+0x623>
    772c:	e8 5f 85 00 00       	callq  fc90 <popen@plt>
    7731:	48 89 c3             	mov    %rax,%rbx
    7734:	8b 15 9e ac 00 00    	mov    0xac9e(%rip),%edx        # 123d8 <W>
    773a:	8b 0d 9c ac 00 00    	mov    0xac9c(%rip),%ecx        # 123dc <H>
    7740:	48 89 c7             	mov    %rax,%rdi
    7743:	48 8d 35 56 a7 ff ff 	lea    -0x58aa(%rip),%rsi        # 1ea0 <_IO_stdin_used+0x5a0>
    774a:	31 c0                	xor    %eax,%eax
    774c:	e8 df 84 00 00       	callq  fc30 <fprintf@plt>
    7751:	48 8b 3d e8 ad 00 00 	mov    0xade8(%rip),%rdi        # 12540 <DATA>
    7758:	8b 05 7a ac 00 00    	mov    0xac7a(%rip),%eax        # 123d8 <W>
    775e:	0f af 05 77 ac 00 00 	imul   0xac77(%rip),%eax        # 123dc <H>
    7765:	8d 04 40             	lea    (%rax,%rax,2),%eax
    7768:	48 63 d0             	movslq %eax,%rdx
    776b:	be 01 00 00 00       	mov    $0x1,%esi
    7770:	48 89 d9             	mov    %rbx,%rcx
    7773:	e8 c8 84 00 00       	callq  fc40 <fwrite@plt>
    7778:	48 89 df             	mov    %rbx,%rdi
    777b:	e8 20 85 00 00       	callq  fca0 <pclose@plt>
    7780:	48 8d 3d b6 a2 ff ff 	lea    -0x5d4a(%rip),%rdi        # 1a3d <_IO_stdin_used+0x13d>
    7787:	44 89 fe             	mov    %r15d,%esi
    778a:	31 c0                	xor    %eax,%eax
    778c:	e8 6f 85 00 00       	callq  fd00 <printf@plt>
    7791:	41 ff c7             	inc    %r15d
    7794:	45 39 fe             	cmp    %r15d,%r14d
    7797:	0f 85 33 ff ff ff    	jne    76d0 <main+0x500>
    779d:	48 8d bc 24 10 01 00 	lea    0x110(%rsp),%rdi
    77a4:	00 
    77a5:	31 f6                	xor    %esi,%esi
    77a7:	e8 d4 85 00 00       	callq  fd80 <gettimeofday@plt>
    77ac:	48 8b 84 24 10 01 00 	mov    0x110(%rsp),%rax
    77b3:	00 
    77b4:	48 8b 8c 24 18 01 00 	mov    0x118(%rsp),%rcx
    77bb:	00 
    77bc:	48 2b 44 24 30       	sub    0x30(%rsp),%rax
    77c1:	f2 48 0f 2a c0       	cvtsi2sd %rax,%xmm0
    77c6:	48 2b 4c 24 38       	sub    0x38(%rsp),%rcx
    77cb:	f2 48 0f 2a c9       	cvtsi2sd %rcx,%xmm1
    77d0:	f2 0f 59 0d 80 a1 ff 	mulsd  -0x5e80(%rip),%xmm1        # 1958 <_IO_stdin_used+0x58>
    77d7:	ff 
    77d8:	f2 0f 58 c8          	addsd  %xmm0,%xmm1
    77dc:	0f 57 c0             	xorps  %xmm0,%xmm0
    77df:	f2 0f 5a c1          	cvtsd2ss %xmm1,%xmm0
    77e3:	f3 0f 5a c0          	cvtss2sd %xmm0,%xmm0
    77e7:	48 8d 3d 7e a4 ff ff 	lea    -0x5b82(%rip),%rdi        # 1c6c <_IO_stdin_used+0x36c>
    77ee:	b0 01                	mov    $0x1,%al
    77f0:	e8 0b 85 00 00       	callq  fd00 <printf@plt>
    77f5:	41 83 fe 02          	cmp    $0x2,%r14d
    77f9:	0f 9c c0             	setl   %al
    77fc:	0a 44 24 10          	or     0x10(%rsp),%al
    7800:	bb 00 00 00 00       	mov    $0x0,%ebx
    7805:	75 44                	jne    784b <main+0x67b>
    7807:	48 8d 05 8c a3 ff ff 	lea    -0x5c74(%rip),%rax        # 1b9a <_IO_stdin_used+0x29a>
    780e:	48 8d 15 bd ab ff ff 	lea    -0x5443(%rip),%rdx        # 23d2 <_IO_stdin_used+0xad2>
    7815:	80 7c 24 28 00       	cmpb   $0x0,0x28(%rsp)
    781a:	48 0f 45 d0          	cmovne %rax,%rdx
    781e:	48 8b 4c 24 08       	mov    0x8(%rsp),%rcx
    7823:	48 89 0c 24          	mov    %rcx,(%rsp)
    7827:	48 8d 5c 24 40       	lea    0x40(%rsp),%rbx
    782c:	be c8 00 00 00       	mov    $0xc8,%esi
    7831:	48 89 df             	mov    %rbx,%rdi
    7834:	49 89 c8             	mov    %rcx,%r8
    7837:	49 89 c9             	mov    %rcx,%r9
    783a:	31 c0                	xor    %eax,%eax
    783c:	e8 2f 84 00 00       	callq  fc70 <snprintf@plt>
    7841:	48 89 df             	mov    %rbx,%rdi
    7844:	e8 47 85 00 00       	callq  fd90 <system@plt>
    7849:	89 c3                	mov    %eax,%ebx
    784b:	89 d8                	mov    %ebx,%eax
    784d:	48 81 c4 e8 08 00 00 	add    $0x8e8,%rsp
    7854:	5b                   	pop    %rbx
    7855:	41 5c                	pop    %r12
    7857:	41 5d                	pop    %r13
    7859:	41 5e                	pop    %r14
    785b:	41 5f                	pop    %r15
    785d:	5d                   	pop    %rbp
    785e:	c3                   	retq   
    785f:	48 8d 35 83 a1 ff ff 	lea    -0x5e7d(%rip),%rsi        # 19e9 <_IO_stdin_used+0xe9>
    7866:	4c 89 ef             	mov    %r13,%rdi
    7869:	e8 42 84 00 00       	callq  fcb0 <strcmp@plt>
    786e:	49 8b 14 24          	mov    (%r12),%rdx
    7872:	85 c0                	test   %eax,%eax
    7874:	74 18                	je     788e <main+0x6be>
    7876:	48 8d 3d 74 a2 ff ff 	lea    -0x5d8c(%rip),%rdi        # 1af1 <_IO_stdin_used+0x1f1>
    787d:	4c 89 ee             	mov    %r13,%rsi
    7880:	31 c0                	xor    %eax,%eax
    7882:	e8 79 84 00 00       	callq  fd00 <printf@plt>
    7887:	bb 01 00 00 00       	mov    $0x1,%ebx
    788c:	eb bd                	jmp    784b <main+0x67b>
    788e:	48 8d 3d 91 a4 ff ff 	lea    -0x5b6f(%rip),%rdi        # 1d26 <_IO_stdin_used+0x426>
    7895:	31 db                	xor    %ebx,%ebx
    7897:	48 89 d6             	mov    %rdx,%rsi
    789a:	31 c0                	xor    %eax,%eax
    789c:	e8 5f 84 00 00       	callq  fd00 <printf@plt>
    78a1:	eb a8                	jmp    784b <main+0x67b>
    78a3:	cc                   	int3   
    78a4:	cc                   	int3   
    78a5:	cc                   	int3   
    78a6:	cc                   	int3   
    78a7:	cc                   	int3   
    78a8:	cc                   	int3   
    78a9:	cc                   	int3   
    78aa:	cc                   	int3   
    78ab:	cc                   	int3   
    78ac:	cc                   	int3   
    78ad:	cc                   	int3   
    78ae:	cc                   	int3   
    78af:	cc                   	int3   

00000000000078b0 <_GLOBAL__sub_I_main.cpp>:
    78b0:	53                   	push   %rbx
    78b1:	48 8d 1d 80 ac 00 00 	lea    0xac80(%rip),%rbx        # 12538 <_ZStL8__ioinit>
    78b8:	48 89 df             	mov    %rbx,%rdi
    78bb:	e8 e0 84 00 00       	callq  fda0 <_ZNSt8ios_base4InitC1Ev@plt>
    78c0:	48 8b 3d f9 9a 00 00 	mov    0x9af9(%rip),%rdi        # 113c0 <_ZNSt8ios_base4InitD1Ev@GLIBCXX_3.4>
    78c7:	48 8d 15 02 ab 00 00 	lea    0xab02(%rip),%rdx        # 123d0 <__dso_handle>
    78ce:	48 89 de             	mov    %rbx,%rsi
    78d1:	e8 da 84 00 00       	callq  fdb0 <__cxa_atexit@plt>
    78d6:	8b 05 fc aa 00 00    	mov    0xaafc(%rip),%eax        # 123d8 <W>
    78dc:	0f af 05 f9 aa 00 00 	imul   0xaaf9(%rip),%eax        # 123dc <H>
    78e3:	8d 04 40             	lea    (%rax,%rax,2),%eax
    78e6:	48 63 f8             	movslq %eax,%rdi
    78e9:	e8 32 83 00 00       	callq  fc20 <malloc@plt>
    78ee:	48 89 05 4b ac 00 00 	mov    %rax,0xac4b(%rip)        # 12540 <DATA>
    78f5:	5b                   	pop    %rbx
    78f6:	c3                   	retq   
    78f7:	cc                   	int3   
    78f8:	cc                   	int3   
    78f9:	cc                   	int3   
    78fa:	cc                   	int3   
    78fb:	cc                   	int3   
    78fc:	cc                   	int3   
    78fd:	cc                   	int3   
    78fe:	cc                   	int3   
    78ff:	cc                   	int3   

0000000000007900 <_ZN3BoxC1ERK6VectorP7Textureddddd>:
    7900:	55                   	push   %rbp
    7901:	48 89 e5             	mov    %rsp,%rbp
    7904:	48 83 ec 50          	sub    $0x50,%rsp
    7908:	48 89 7d f8          	mov    %rdi,-0x8(%rbp)
    790c:	48 89 75 f0          	mov    %rsi,-0x10(%rbp)
    7910:	48 89 55 e8          	mov    %rdx,-0x18(%rbp)
    7914:	f2 0f 11 45 e0       	movsd  %xmm0,-0x20(%rbp)
    7919:	f2 0f 11 4d d8       	movsd  %xmm1,-0x28(%rbp)
    791e:	f2 0f 11 55 d0       	movsd  %xmm2,-0x30(%rbp)
    7923:	f2 0f 11 5d c8       	movsd  %xmm3,-0x38(%rbp)
    7928:	f2 0f 11 65 c0       	movsd  %xmm4,-0x40(%rbp)
    792d:	48 8b 7d f8          	mov    -0x8(%rbp),%rdi
    7931:	48 89 7d b8          	mov    %rdi,-0x48(%rbp)
    7935:	48 8b 75 f0          	mov    -0x10(%rbp),%rsi
    7939:	48 8b 55 e8          	mov    -0x18(%rbp),%rdx
    793d:	f2 0f 10 45 e0       	movsd  -0x20(%rbp),%xmm0
    7942:	f2 0f 10 4d d8       	movsd  -0x28(%rbp),%xmm1
    7947:	f2 0f 10 55 d0       	movsd  -0x30(%rbp),%xmm2
    794c:	f2 0f 10 5d c8       	movsd  -0x38(%rbp),%xmm3
    7951:	f2 0f 10 65 c0       	movsd  -0x40(%rbp),%xmm4
    7956:	e8 45 23 00 00       	callq  9ca0 <_ZN5PlaneC1ERK6VectorP7Textureddddd>
    795b:	48 8b 45 b8          	mov    -0x48(%rbp),%rax
    795f:	48 8d 0d 22 95 00 00 	lea    0x9522(%rip),%rcx        # 10e88 <_ZTV3Box>
    7966:	48 83 c1 10          	add    $0x10,%rcx
    796a:	48 89 08             	mov    %rcx,(%rax)
    796d:	48 83 c4 50          	add    $0x50,%rsp
    7971:	5d                   	pop    %rbp
    7972:	c3                   	retq   
    7973:	66 66 66 66 2e 0f 1f 	data16 data16 data16 nopw %cs:0x0(%rax,%rax,1)
    797a:	84 00 00 00 00 00 

0000000000007980 <_ZN3BoxC1ERK6VectorP7Texturedddd>:
    7980:	55                   	push   %rbp
    7981:	48 89 e5             	mov    %rsp,%rbp
    7984:	48 83 ec 40          	sub    $0x40,%rsp
    7988:	48 89 7d f8          	mov    %rdi,-0x8(%rbp)
    798c:	48 89 75 f0          	mov    %rsi,-0x10(%rbp)
    7990:	48 89 55 e8          	mov    %rdx,-0x18(%rbp)
    7994:	f2 0f 11 45 e0       	movsd  %xmm0,-0x20(%rbp)
    7999:	f2 0f 11 4d d8       	movsd  %xmm1,-0x28(%rbp)
    799e:	f2 0f 11 55 d0       	movsd  %xmm2,-0x30(%rbp)
    79a3:	f2 0f 11 5d c8       	movsd  %xmm3,-0x38(%rbp)
    79a8:	48 8b 7d f8          	mov    -0x8(%rbp),%rdi
    79ac:	48 89 7d c0          	mov    %rdi,-0x40(%rbp)
    79b0:	48 8b 75 f0          	mov    -0x10(%rbp),%rsi
    79b4:	48 8b 55 e8          	mov    -0x18(%rbp),%rdx
    79b8:	f2 0f 10 45 e0       	movsd  -0x20(%rbp),%xmm0
    79bd:	f2 0f 10 4d d8       	movsd  -0x28(%rbp),%xmm1
    79c2:	f2 0f 10 55 d0       	movsd  -0x30(%rbp),%xmm2
    79c7:	f2 0f 10 5d c8       	movsd  -0x38(%rbp),%xmm3
    79cc:	f2 0f 10 65 c8       	movsd  -0x38(%rbp),%xmm4
    79d1:	e8 ca 22 00 00       	callq  9ca0 <_ZN5PlaneC1ERK6VectorP7Textureddddd>
    79d6:	48 8b 45 c0          	mov    -0x40(%rbp),%rax
    79da:	48 8d 0d a7 94 00 00 	lea    0x94a7(%rip),%rcx        # 10e88 <_ZTV3Box>
    79e1:	48 83 c1 10          	add    $0x10,%rcx
    79e5:	48 89 08             	mov    %rcx,(%rax)
    79e8:	48 83 c4 40          	add    $0x40,%rsp
    79ec:	5d                   	pop    %rbp
    79ed:	c3                   	retq   
    79ee:	66 90                	xchg   %ax,%ax

00000000000079f0 <_ZN3Box15getIntersectionE3Ray>:
    79f0:	55                   	push   %rbp
    79f1:	48 89 e5             	mov    %rsp,%rbp
    79f4:	48 81 ec a0 01 00 00 	sub    $0x1a0,%rsp
    79fb:	48 8d 75 10          	lea    0x10(%rbp),%rsi
    79ff:	48 89 b5 e0 fe ff ff 	mov    %rsi,-0x120(%rbp)
    7a06:	48 89 7d f0          	mov    %rdi,-0x10(%rbp)
    7a0a:	48 8b 45 f0          	mov    -0x10(%rbp),%rax
    7a0e:	48 89 85 e8 fe ff ff 	mov    %rax,-0x118(%rbp)
    7a15:	48 8d 7d b8          	lea    -0x48(%rbp),%rdi
    7a19:	ba 30 00 00 00       	mov    $0x30,%edx
    7a1e:	e8 9d 83 00 00       	callq  fdc0 <memcpy@plt>
    7a23:	48 8b bd e8 fe ff ff 	mov    -0x118(%rbp),%rdi
    7a2a:	0f 10 45 b8          	movups -0x48(%rbp),%xmm0
    7a2e:	0f 10 4d c8          	movups -0x38(%rbp),%xmm1
    7a32:	0f 10 55 d8          	movups -0x28(%rbp),%xmm2
    7a36:	48 89 e0             	mov    %rsp,%rax
    7a39:	0f 11 50 20          	movups %xmm2,0x20(%rax)
    7a3d:	0f 11 48 10          	movups %xmm1,0x10(%rax)
    7a41:	0f 11 00             	movups %xmm0,(%rax)
    7a44:	e8 e7 2b 00 00       	callq  a630 <_ZN5Plane15getIntersectionE3Ray>
    7a49:	48 8b b5 e0 fe ff ff 	mov    -0x120(%rbp),%rsi
    7a50:	48 8b 85 e8 fe ff ff 	mov    -0x118(%rbp),%rax
    7a57:	f2 0f 11 45 e8       	movsd  %xmm0,-0x18(%rbp)
    7a5c:	48 8b 88 c0 00 00 00 	mov    0xc0(%rax),%rcx
    7a63:	48 89 4d 88          	mov    %rcx,-0x78(%rbp)
    7a67:	48 8b 88 c8 00 00 00 	mov    0xc8(%rax),%rcx
    7a6e:	48 89 4d 90          	mov    %rcx,-0x70(%rbp)
    7a72:	48 8b 88 d0 00 00 00 	mov    0xd0(%rax),%rcx
    7a79:	48 89 4d 98          	mov    %rcx,-0x68(%rbp)
    7a7d:	48 8b 88 d8 00 00 00 	mov    0xd8(%rax),%rcx
    7a84:	48 89 8d 70 ff ff ff 	mov    %rcx,-0x90(%rbp)
    7a8b:	48 8b 88 e0 00 00 00 	mov    0xe0(%rax),%rcx
    7a92:	48 89 8d 78 ff ff ff 	mov    %rcx,-0x88(%rbp)
    7a99:	48 8b 88 e8 00 00 00 	mov    0xe8(%rax),%rcx
    7aa0:	48 89 4d 80          	mov    %rcx,-0x80(%rbp)
    7aa4:	48 8b 88 a8 00 00 00 	mov    0xa8(%rax),%rcx
    7aab:	48 89 8d 58 ff ff ff 	mov    %rcx,-0xa8(%rbp)
    7ab2:	48 8b 88 b0 00 00 00 	mov    0xb0(%rax),%rcx
    7ab9:	48 89 8d 60 ff ff ff 	mov    %rcx,-0xa0(%rbp)
    7ac0:	48 8b 80 b8 00 00 00 	mov    0xb8(%rax),%rax
    7ac7:	48 89 85 68 ff ff ff 	mov    %rax,-0x98(%rbp)
    7ace:	48 83 c6 18          	add    $0x18,%rsi
    7ad2:	f2 0f 10 45 e8       	movsd  -0x18(%rbp),%xmm0
    7ad7:	48 8d bd 10 ff ff ff 	lea    -0xf0(%rbp),%rdi
    7ade:	e8 bd 67 00 00       	callq  e2a0 <_ZN6VectormlEd>
    7ae3:	48 8b b5 e0 fe ff ff 	mov    -0x120(%rbp),%rsi
    7aea:	48 8d bd 28 ff ff ff 	lea    -0xd8(%rbp),%rdi
    7af1:	48 8d 85 10 ff ff ff 	lea    -0xf0(%rbp),%rax
    7af8:	48 8b 08             	mov    (%rax),%rcx
    7afb:	48 89 0c 24          	mov    %rcx,(%rsp)
    7aff:	48 8b 48 08          	mov    0x8(%rax),%rcx
    7b03:	48 89 4c 24 08       	mov    %rcx,0x8(%rsp)
    7b08:	48 8b 40 10          	mov    0x10(%rax),%rax
    7b0c:	48 89 44 24 10       	mov    %rax,0x10(%rsp)
    7b11:	e8 3a 67 00 00       	callq  e250 <_ZN6VectorplES_>
    7b16:	48 8b 85 e8 fe ff ff 	mov    -0x118(%rbp),%rax
    7b1d:	48 8b 48 50          	mov    0x50(%rax),%rcx
    7b21:	48 89 8d f8 fe ff ff 	mov    %rcx,-0x108(%rbp)
    7b28:	48 8b 48 58          	mov    0x58(%rax),%rcx
    7b2c:	48 89 8d 00 ff ff ff 	mov    %rcx,-0x100(%rbp)
    7b33:	48 8b 40 60          	mov    0x60(%rax),%rax
    7b37:	48 89 85 08 ff ff ff 	mov    %rax,-0xf8(%rbp)
    7b3e:	48 8d bd 40 ff ff ff 	lea    -0xc0(%rbp),%rdi
    7b45:	48 8d b5 28 ff ff ff 	lea    -0xd8(%rbp),%rsi
    7b4c:	48 8d 85 f8 fe ff ff 	lea    -0x108(%rbp),%rax
    7b53:	48 8b 08             	mov    (%rax),%rcx
    7b56:	48 89 0c 24          	mov    %rcx,(%rsp)
    7b5a:	48 8b 48 08          	mov    0x8(%rax),%rcx
    7b5e:	48 89 4c 24 08       	mov    %rcx,0x8(%rsp)
    7b63:	48 8b 40 10          	mov    0x10(%rax),%rax
    7b67:	48 89 44 24 10       	mov    %rax,0x10(%rsp)
    7b6c:	e8 8f 66 00 00       	callq  e200 <_ZN6VectormiES_>
    7b71:	48 8d 7d a0          	lea    -0x60(%rbp),%rdi
    7b75:	48 8d 75 88          	lea    -0x78(%rbp),%rsi
    7b79:	48 8d 95 70 ff ff ff 	lea    -0x90(%rbp),%rdx
    7b80:	48 8d 8d 58 ff ff ff 	lea    -0xa8(%rbp),%rcx
    7b87:	48 8d 85 40 ff ff ff 	lea    -0xc0(%rbp),%rax
    7b8e:	4c 8b 06             	mov    (%rsi),%r8
    7b91:	4c 89 04 24          	mov    %r8,(%rsp)
    7b95:	4c 8b 46 08          	mov    0x8(%rsi),%r8
    7b99:	4c 89 44 24 08       	mov    %r8,0x8(%rsp)
    7b9e:	48 8b 76 10          	mov    0x10(%rsi),%rsi
    7ba2:	48 89 74 24 10       	mov    %rsi,0x10(%rsp)
    7ba7:	48 8b 32             	mov    (%rdx),%rsi
    7baa:	48 89 74 24 18       	mov    %rsi,0x18(%rsp)
    7baf:	48 8b 72 08          	mov    0x8(%rdx),%rsi
    7bb3:	48 89 74 24 20       	mov    %rsi,0x20(%rsp)
    7bb8:	48 8b 52 10          	mov    0x10(%rdx),%rdx
    7bbc:	48 89 54 24 28       	mov    %rdx,0x28(%rsp)
    7bc1:	48 8b 11             	mov    (%rcx),%rdx
    7bc4:	48 89 54 24 30       	mov    %rdx,0x30(%rsp)
    7bc9:	48 8b 51 08          	mov    0x8(%rcx),%rdx
    7bcd:	48 89 54 24 38       	mov    %rdx,0x38(%rsp)
    7bd2:	48 8b 49 10          	mov    0x10(%rcx),%rcx
    7bd6:	48 89 4c 24 40       	mov    %rcx,0x40(%rsp)
    7bdb:	48 8b 08             	mov    (%rax),%rcx
    7bde:	48 89 4c 24 48       	mov    %rcx,0x48(%rsp)
    7be3:	48 8b 48 08          	mov    0x8(%rax),%rcx
    7be7:	48 89 4c 24 50       	mov    %rcx,0x50(%rsp)
    7bec:	48 8b 40 10          	mov    0x10(%rax),%rax
    7bf0:	48 89 44 24 58       	mov    %rax,0x58(%rsp)
    7bf5:	e8 b6 6a 00 00       	callq  e6b0 <_Z12solveScalers6VectorS_S_S_>
    7bfa:	f2 0f 10 45 e8       	movsd  -0x18(%rbp),%xmm0
    7bff:	f2 0f 11 85 f0 fe ff 	movsd  %xmm0,-0x110(%rbp)
    7c06:	ff 
    7c07:	e8 94 06 00 00       	callq  82a0 <_ZNSt14numeric_limitsIdE8infinityEv>
    7c0c:	0f 28 c8             	movaps %xmm0,%xmm1
    7c0f:	f2 0f 10 85 f0 fe ff 	movsd  -0x110(%rbp),%xmm0
    7c16:	ff 
    7c17:	66 0f 2e c1          	ucomisd %xmm1,%xmm0
    7c1b:	0f 85 15 00 00 00    	jne    7c36 <_ZN3Box15getIntersectionE3Ray+0x246>
    7c21:	0f 8a 0f 00 00 00    	jp     7c36 <_ZN3Box15getIntersectionE3Ray+0x246>
    7c27:	f2 0f 10 45 e8       	movsd  -0x18(%rbp),%xmm0
    7c2c:	f2 0f 11 45 f8       	movsd  %xmm0,-0x8(%rbp)
    7c31:	e9 10 01 00 00       	jmpq   7d46 <_ZN3Box15getIntersectionE3Ray+0x356>
    7c36:	f2 0f 10 45 a0       	movsd  -0x60(%rbp),%xmm0
    7c3b:	0f 57 c9             	xorps  %xmm1,%xmm1
    7c3e:	66 0f 2e c1          	ucomisd %xmm1,%xmm0
    7c42:	0f 82 12 00 00 00    	jb     7c5a <_ZN3Box15getIntersectionE3Ray+0x26a>
    7c48:	f2 0f 10 45 a0       	movsd  -0x60(%rbp),%xmm0
    7c4d:	f2 0f 11 85 d8 fe ff 	movsd  %xmm0,-0x128(%rbp)
    7c54:	ff 
    7c55:	e9 24 00 00 00       	jmpq   7c7e <_ZN3Box15getIntersectionE3Ray+0x28e>
    7c5a:	f2 0f 10 45 a0       	movsd  -0x60(%rbp),%xmm0
    7c5f:	66 48 0f 7e c0       	movq   %xmm0,%rax
    7c64:	48 b9 00 00 00 00 00 	movabs $0x8000000000000000,%rcx
    7c6b:	00 00 80 
    7c6e:	48 31 c8             	xor    %rcx,%rax
    7c71:	66 48 0f 6e c0       	movq   %rax,%xmm0
    7c76:	f2 0f 11 85 d8 fe ff 	movsd  %xmm0,-0x128(%rbp)
    7c7d:	ff 
    7c7e:	48 8b 85 e8 fe ff ff 	mov    -0x118(%rbp),%rax
    7c85:	f2 0f 10 85 d8 fe ff 	movsd  -0x128(%rbp),%xmm0
    7c8c:	ff 
    7c8d:	f2 0f 10 48 70       	movsd  0x70(%rax),%xmm1
    7c92:	f2 0f 10 15 86 9c ff 	movsd  -0x637a(%rip),%xmm2        # 1920 <_IO_stdin_used+0x20>
    7c99:	ff 
    7c9a:	f2 0f 5e ca          	divsd  %xmm2,%xmm1
    7c9e:	66 0f 2e c1          	ucomisd %xmm1,%xmm0
    7ca2:	0f 87 72 00 00 00    	ja     7d1a <_ZN3Box15getIntersectionE3Ray+0x32a>
    7ca8:	f2 0f 10 45 a8       	movsd  -0x58(%rbp),%xmm0
    7cad:	0f 57 c9             	xorps  %xmm1,%xmm1
    7cb0:	66 0f 2e c1          	ucomisd %xmm1,%xmm0
    7cb4:	0f 82 12 00 00 00    	jb     7ccc <_ZN3Box15getIntersectionE3Ray+0x2dc>
    7cba:	f2 0f 10 45 a8       	movsd  -0x58(%rbp),%xmm0
    7cbf:	f2 0f 11 85 d0 fe ff 	movsd  %xmm0,-0x130(%rbp)
    7cc6:	ff 
    7cc7:	e9 24 00 00 00       	jmpq   7cf0 <_ZN3Box15getIntersectionE3Ray+0x300>
    7ccc:	f2 0f 10 45 a8       	movsd  -0x58(%rbp),%xmm0
    7cd1:	66 48 0f 7e c0       	movq   %xmm0,%rax
    7cd6:	48 b9 00 00 00 00 00 	movabs $0x8000000000000000,%rcx
    7cdd:	00 00 80 
    7ce0:	48 31 c8             	xor    %rcx,%rax
    7ce3:	66 48 0f 6e c0       	movq   %rax,%xmm0
    7ce8:	f2 0f 11 85 d0 fe ff 	movsd  %xmm0,-0x130(%rbp)
    7cef:	ff 
    7cf0:	48 8b 85 e8 fe ff ff 	mov    -0x118(%rbp),%rax
    7cf7:	f2 0f 10 85 d0 fe ff 	movsd  -0x130(%rbp),%xmm0
    7cfe:	ff 
    7cff:	f2 0f 10 48 78       	movsd  0x78(%rax),%xmm1
    7d04:	f2 0f 10 15 14 9c ff 	movsd  -0x63ec(%rip),%xmm2        # 1920 <_IO_stdin_used+0x20>
    7d0b:	ff 
    7d0c:	f2 0f 5e ca          	divsd  %xmm2,%xmm1
    7d10:	66 0f 2e c1          	ucomisd %xmm1,%xmm0
    7d14:	0f 86 12 00 00 00    	jbe    7d2c <_ZN3Box15getIntersectionE3Ray+0x33c>
    7d1a:	e8 81 05 00 00       	callq  82a0 <_ZNSt14numeric_limitsIdE8infinityEv>
    7d1f:	f2 0f 11 85 c8 fe ff 	movsd  %xmm0,-0x138(%rbp)
    7d26:	ff 
    7d27:	e9 0d 00 00 00       	jmpq   7d39 <_ZN3Box15getIntersectionE3Ray+0x349>
    7d2c:	f2 0f 10 45 e8       	movsd  -0x18(%rbp),%xmm0
    7d31:	f2 0f 11 85 c8 fe ff 	movsd  %xmm0,-0x138(%rbp)
    7d38:	ff 
    7d39:	f2 0f 10 85 c8 fe ff 	movsd  -0x138(%rbp),%xmm0
    7d40:	ff 
    7d41:	f2 0f 11 45 f8       	movsd  %xmm0,-0x8(%rbp)
    7d46:	f2 0f 10 45 f8       	movsd  -0x8(%rbp),%xmm0
    7d4b:	48 81 c4 a0 01 00 00 	add    $0x1a0,%rsp
    7d52:	5d                   	pop    %rbp
    7d53:	c3                   	retq   
    7d54:	66 66 66 2e 0f 1f 84 	data16 data16 nopw %cs:0x0(%rax,%rax,1)
    7d5b:	00 00 00 00 00 

0000000000007d60 <_ZN3Box20getLightIntersectionE3RayPd>:
    7d60:	55                   	push   %rbp
    7d61:	48 89 e5             	mov    %rsp,%rbp
    7d64:	48 81 ec e0 01 00 00 	sub    $0x1e0,%rsp
    7d6b:	48 89 f8             	mov    %rdi,%rax
    7d6e:	48 8d 7d 10          	lea    0x10(%rbp),%rdi
    7d72:	48 89 bd b0 fe ff ff 	mov    %rdi,-0x150(%rbp)
    7d79:	48 89 45 f0          	mov    %rax,-0x10(%rbp)
    7d7d:	48 89 75 e8          	mov    %rsi,-0x18(%rbp)
    7d81:	48 8b 45 f0          	mov    -0x10(%rbp),%rax
    7d85:	48 89 85 b8 fe ff ff 	mov    %rax,-0x148(%rbp)
    7d8c:	48 83 c7 18          	add    $0x18,%rdi
    7d90:	48 8b 88 a8 00 00 00 	mov    0xa8(%rax),%rcx
    7d97:	48 89 4d c8          	mov    %rcx,-0x38(%rbp)
    7d9b:	48 8b 88 b0 00 00 00 	mov    0xb0(%rax),%rcx
    7da2:	48 89 4d d0          	mov    %rcx,-0x30(%rbp)
    7da6:	48 8b 80 b8 00 00 00 	mov    0xb8(%rax),%rax
    7dad:	48 89 45 d8          	mov    %rax,-0x28(%rbp)
    7db1:	48 8d 45 c8          	lea    -0x38(%rbp),%rax
    7db5:	48 8b 08             	mov    (%rax),%rcx
    7db8:	48 89 0c 24          	mov    %rcx,(%rsp)
    7dbc:	48 8b 48 08          	mov    0x8(%rax),%rcx
    7dc0:	48 89 4c 24 08       	mov    %rcx,0x8(%rsp)
    7dc5:	48 8b 40 10          	mov    0x10(%rax),%rax
    7dc9:	48 89 44 24 10       	mov    %rax,0x10(%rsp)
    7dce:	e8 3d 68 00 00       	callq  e610 <_ZN6Vector3dotES_>
    7dd3:	48 8b 85 b0 fe ff ff 	mov    -0x150(%rbp),%rax
    7dda:	48 8b bd b8 fe ff ff 	mov    -0x148(%rbp),%rdi
    7de1:	f2 0f 11 45 e0       	movsd  %xmm0,-0x20(%rbp)
    7de6:	48 81 c7 a8 00 00 00 	add    $0xa8,%rdi
    7ded:	48 8b 08             	mov    (%rax),%rcx
    7df0:	48 89 4d a8          	mov    %rcx,-0x58(%rbp)
    7df4:	48 8b 48 08          	mov    0x8(%rax),%rcx
    7df8:	48 89 4d b0          	mov    %rcx,-0x50(%rbp)
    7dfc:	48 8b 40 10          	mov    0x10(%rax),%rax
    7e00:	48 89 45 b8          	mov    %rax,-0x48(%rbp)
    7e04:	48 8d 45 a8          	lea    -0x58(%rbp),%rax
    7e08:	48 8b 08             	mov    (%rax),%rcx
    7e0b:	48 89 0c 24          	mov    %rcx,(%rsp)
    7e0f:	48 8b 48 08          	mov    0x8(%rax),%rcx
    7e13:	48 89 4c 24 08       	mov    %rcx,0x8(%rsp)
    7e18:	48 8b 40 10          	mov    0x10(%rax),%rax
    7e1c:	48 89 44 24 10       	mov    %rax,0x10(%rsp)
    7e21:	e8 ea 67 00 00       	callq  e610 <_ZN6Vector3dotES_>
    7e26:	48 8b 85 b8 fe ff ff 	mov    -0x148(%rbp),%rax
    7e2d:	f2 0f 58 80 f0 00 00 	addsd  0xf0(%rax),%xmm0
    7e34:	00 
    7e35:	f2 0f 11 45 c0       	movsd  %xmm0,-0x40(%rbp)
    7e3a:	f2 0f 10 45 c0       	movsd  -0x40(%rbp),%xmm0
    7e3f:	66 48 0f 7e c0       	movq   %xmm0,%rax
    7e44:	48 b9 00 00 00 00 00 	movabs $0x8000000000000000,%rcx
    7e4b:	00 00 80 
    7e4e:	48 31 c8             	xor    %rcx,%rax
    7e51:	66 48 0f 6e c0       	movq   %rax,%xmm0
    7e56:	f2 0f 5e 45 e0       	divsd  -0x20(%rbp),%xmm0
    7e5b:	f2 0f 11 45 a0       	movsd  %xmm0,-0x60(%rbp)
    7e60:	0f 57 c0             	xorps  %xmm0,%xmm0
    7e63:	66 0f 2e 45 a0       	ucomisd -0x60(%rbp),%xmm0
    7e68:	0f 83 17 00 00 00    	jae    7e85 <_ZN3Box20getLightIntersectionE3RayPd+0x125>
    7e6e:	f2 0f 10 45 a0       	movsd  -0x60(%rbp),%xmm0
    7e73:	f2 0f 10 0d cd 9a ff 	movsd  -0x6533(%rip),%xmm1        # 1948 <_IO_stdin_used+0x48>
    7e7a:	ff 
    7e7b:	66 0f 2e c1          	ucomisd %xmm1,%xmm0
    7e7f:	0f 82 09 00 00 00    	jb     7e8e <_ZN3Box20getLightIntersectionE3RayPd+0x12e>
    7e85:	c6 45 ff 00          	movb   $0x0,-0x1(%rbp)
    7e89:	e9 fc 03 00 00       	jmpq   828a <_ZN3Box20getLightIntersectionE3RayPd+0x52a>
    7e8e:	48 8b 85 b8 fe ff ff 	mov    -0x148(%rbp),%rax
    7e95:	48 8b b5 b0 fe ff ff 	mov    -0x150(%rbp),%rsi
    7e9c:	48 8b 88 c0 00 00 00 	mov    0xc0(%rax),%rcx
    7ea3:	48 89 8d 70 ff ff ff 	mov    %rcx,-0x90(%rbp)
    7eaa:	48 8b 88 c8 00 00 00 	mov    0xc8(%rax),%rcx
    7eb1:	48 89 8d 78 ff ff ff 	mov    %rcx,-0x88(%rbp)
    7eb8:	48 8b 88 d0 00 00 00 	mov    0xd0(%rax),%rcx
    7ebf:	48 89 4d 80          	mov    %rcx,-0x80(%rbp)
    7ec3:	48 8b 88 d8 00 00 00 	mov    0xd8(%rax),%rcx
    7eca:	48 89 8d 58 ff ff ff 	mov    %rcx,-0xa8(%rbp)
    7ed1:	48 8b 88 e0 00 00 00 	mov    0xe0(%rax),%rcx
    7ed8:	48 89 8d 60 ff ff ff 	mov    %rcx,-0xa0(%rbp)
    7edf:	48 8b 88 e8 00 00 00 	mov    0xe8(%rax),%rcx
    7ee6:	48 89 8d 68 ff ff ff 	mov    %rcx,-0x98(%rbp)
    7eed:	48 8b 88 a8 00 00 00 	mov    0xa8(%rax),%rcx
    7ef4:	48 89 8d 40 ff ff ff 	mov    %rcx,-0xc0(%rbp)
    7efb:	48 8b 88 b0 00 00 00 	mov    0xb0(%rax),%rcx
    7f02:	48 89 8d 48 ff ff ff 	mov    %rcx,-0xb8(%rbp)
    7f09:	48 8b 80 b8 00 00 00 	mov    0xb8(%rax),%rax
    7f10:	48 89 85 50 ff ff ff 	mov    %rax,-0xb0(%rbp)
    7f17:	48 83 c6 18          	add    $0x18,%rsi
    7f1b:	f2 0f 10 45 a0       	movsd  -0x60(%rbp),%xmm0
    7f20:	48 8d bd f8 fe ff ff 	lea    -0x108(%rbp),%rdi
    7f27:	e8 74 63 00 00       	callq  e2a0 <_ZN6VectormlEd>
    7f2c:	48 8b b5 b0 fe ff ff 	mov    -0x150(%rbp),%rsi
    7f33:	48 8d bd 10 ff ff ff 	lea    -0xf0(%rbp),%rdi
    7f3a:	48 8d 85 f8 fe ff ff 	lea    -0x108(%rbp),%rax
    7f41:	48 8b 08             	mov    (%rax),%rcx
    7f44:	48 89 0c 24          	mov    %rcx,(%rsp)
    7f48:	48 8b 48 08          	mov    0x8(%rax),%rcx
    7f4c:	48 89 4c 24 08       	mov    %rcx,0x8(%rsp)
    7f51:	48 8b 40 10          	mov    0x10(%rax),%rax
    7f55:	48 89 44 24 10       	mov    %rax,0x10(%rsp)
    7f5a:	e8 f1 62 00 00       	callq  e250 <_ZN6VectorplES_>
    7f5f:	48 8b 85 b8 fe ff ff 	mov    -0x148(%rbp),%rax
    7f66:	48 8b 48 50          	mov    0x50(%rax),%rcx
    7f6a:	48 89 8d e0 fe ff ff 	mov    %rcx,-0x120(%rbp)
    7f71:	48 8b 48 58          	mov    0x58(%rax),%rcx
    7f75:	48 89 8d e8 fe ff ff 	mov    %rcx,-0x118(%rbp)
    7f7c:	48 8b 40 60          	mov    0x60(%rax),%rax
    7f80:	48 89 85 f0 fe ff ff 	mov    %rax,-0x110(%rbp)
    7f87:	48 8d bd 28 ff ff ff 	lea    -0xd8(%rbp),%rdi
    7f8e:	48 8d b5 10 ff ff ff 	lea    -0xf0(%rbp),%rsi
    7f95:	48 8d 85 e0 fe ff ff 	lea    -0x120(%rbp),%rax
    7f9c:	48 8b 08             	mov    (%rax),%rcx
    7f9f:	48 89 0c 24          	mov    %rcx,(%rsp)
    7fa3:	48 8b 48 08          	mov    0x8(%rax),%rcx
    7fa7:	48 89 4c 24 08       	mov    %rcx,0x8(%rsp)
    7fac:	48 8b 40 10          	mov    0x10(%rax),%rax
    7fb0:	48 89 44 24 10       	mov    %rax,0x10(%rsp)
    7fb5:	e8 46 62 00 00       	callq  e200 <_ZN6VectormiES_>
    7fba:	48 8d 7d 88          	lea    -0x78(%rbp),%rdi
    7fbe:	48 8d b5 70 ff ff ff 	lea    -0x90(%rbp),%rsi
    7fc5:	48 8d 95 58 ff ff ff 	lea    -0xa8(%rbp),%rdx
    7fcc:	48 8d 8d 40 ff ff ff 	lea    -0xc0(%rbp),%rcx
    7fd3:	48 8d 85 28 ff ff ff 	lea    -0xd8(%rbp),%rax
    7fda:	4c 8b 06             	mov    (%rsi),%r8
    7fdd:	4c 89 04 24          	mov    %r8,(%rsp)
    7fe1:	4c 8b 46 08          	mov    0x8(%rsi),%r8
    7fe5:	4c 89 44 24 08       	mov    %r8,0x8(%rsp)
    7fea:	48 8b 76 10          	mov    0x10(%rsi),%rsi
    7fee:	48 89 74 24 10       	mov    %rsi,0x10(%rsp)
    7ff3:	48 8b 32             	mov    (%rdx),%rsi
    7ff6:	48 89 74 24 18       	mov    %rsi,0x18(%rsp)
    7ffb:	48 8b 72 08          	mov    0x8(%rdx),%rsi
    7fff:	48 89 74 24 20       	mov    %rsi,0x20(%rsp)
    8004:	48 8b 52 10          	mov    0x10(%rdx),%rdx
    8008:	48 89 54 24 28       	mov    %rdx,0x28(%rsp)
    800d:	48 8b 11             	mov    (%rcx),%rdx
    8010:	48 89 54 24 30       	mov    %rdx,0x30(%rsp)
    8015:	48 8b 51 08          	mov    0x8(%rcx),%rdx
    8019:	48 89 54 24 38       	mov    %rdx,0x38(%rsp)
    801e:	48 8b 49 10          	mov    0x10(%rcx),%rcx
    8022:	48 89 4c 24 40       	mov    %rcx,0x40(%rsp)
    8027:	48 8b 08             	mov    (%rax),%rcx
    802a:	48 89 4c 24 48       	mov    %rcx,0x48(%rsp)
    802f:	48 8b 48 08          	mov    0x8(%rax),%rcx
    8033:	48 89 4c 24 50       	mov    %rcx,0x50(%rsp)
    8038:	48 8b 40 10          	mov    0x10(%rax),%rax
    803c:	48 89 44 24 58       	mov    %rax,0x58(%rsp)
    8041:	e8 6a 66 00 00       	callq  e6b0 <_Z12solveScalers6VectorS_S_S_>
    8046:	f2 0f 10 45 88       	movsd  -0x78(%rbp),%xmm0
    804b:	0f 57 c9             	xorps  %xmm1,%xmm1
    804e:	66 0f 2e c1          	ucomisd %xmm1,%xmm0
    8052:	0f 82 12 00 00 00    	jb     806a <_ZN3Box20getLightIntersectionE3RayPd+0x30a>
    8058:	f2 0f 10 45 88       	movsd  -0x78(%rbp),%xmm0
    805d:	f2 0f 11 85 a8 fe ff 	movsd  %xmm0,-0x158(%rbp)
    8064:	ff 
    8065:	e9 24 00 00 00       	jmpq   808e <_ZN3Box20getLightIntersectionE3RayPd+0x32e>
    806a:	f2 0f 10 45 88       	movsd  -0x78(%rbp),%xmm0
    806f:	66 48 0f 7e c0       	movq   %xmm0,%rax
    8074:	48 b9 00 00 00 00 00 	movabs $0x8000000000000000,%rcx
    807b:	00 00 80 
    807e:	48 31 c8             	xor    %rcx,%rax
    8081:	66 48 0f 6e c0       	movq   %rax,%xmm0
    8086:	f2 0f 11 85 a8 fe ff 	movsd  %xmm0,-0x158(%rbp)
    808d:	ff 
    808e:	48 8b 85 b8 fe ff ff 	mov    -0x148(%rbp),%rax
    8095:	f2 0f 10 85 a8 fe ff 	movsd  -0x158(%rbp),%xmm0
    809c:	ff 
    809d:	f2 0f 10 48 70       	movsd  0x70(%rax),%xmm1
    80a2:	f2 0f 10 15 76 98 ff 	movsd  -0x678a(%rip),%xmm2        # 1920 <_IO_stdin_used+0x20>
    80a9:	ff 
    80aa:	f2 0f 5e ca          	divsd  %xmm2,%xmm1
    80ae:	66 0f 2e c1          	ucomisd %xmm1,%xmm0
    80b2:	0f 87 72 00 00 00    	ja     812a <_ZN3Box20getLightIntersectionE3RayPd+0x3ca>
    80b8:	f2 0f 10 45 90       	movsd  -0x70(%rbp),%xmm0
    80bd:	0f 57 c9             	xorps  %xmm1,%xmm1
    80c0:	66 0f 2e c1          	ucomisd %xmm1,%xmm0
    80c4:	0f 82 12 00 00 00    	jb     80dc <_ZN3Box20getLightIntersectionE3RayPd+0x37c>
    80ca:	f2 0f 10 45 90       	movsd  -0x70(%rbp),%xmm0
    80cf:	f2 0f 11 85 a0 fe ff 	movsd  %xmm0,-0x160(%rbp)
    80d6:	ff 
    80d7:	e9 24 00 00 00       	jmpq   8100 <_ZN3Box20getLightIntersectionE3RayPd+0x3a0>
    80dc:	f2 0f 10 45 90       	movsd  -0x70(%rbp),%xmm0
    80e1:	66 48 0f 7e c0       	movq   %xmm0,%rax
    80e6:	48 b9 00 00 00 00 00 	movabs $0x8000000000000000,%rcx
    80ed:	00 00 80 
    80f0:	48 31 c8             	xor    %rcx,%rax
    80f3:	66 48 0f 6e c0       	movq   %rax,%xmm0
    80f8:	f2 0f 11 85 a0 fe ff 	movsd  %xmm0,-0x160(%rbp)
    80ff:	ff 
    8100:	48 8b 85 b8 fe ff ff 	mov    -0x148(%rbp),%rax
    8107:	f2 0f 10 85 a0 fe ff 	movsd  -0x160(%rbp),%xmm0
    810e:	ff 
    810f:	f2 0f 10 48 78       	movsd  0x78(%rax),%xmm1
    8114:	f2 0f 10 15 04 98 ff 	movsd  -0x67fc(%rip),%xmm2        # 1920 <_IO_stdin_used+0x20>
    811b:	ff 
    811c:	f2 0f 5e ca          	divsd  %xmm2,%xmm1
    8120:	66 0f 2e c1          	ucomisd %xmm1,%xmm0
    8124:	0f 86 09 00 00 00    	jbe    8133 <_ZN3Box20getLightIntersectionE3RayPd+0x3d3>
    812a:	c6 45 ff 00          	movb   $0x0,-0x1(%rbp)
    812e:	e9 57 01 00 00       	jmpq   828a <_ZN3Box20getLightIntersectionE3RayPd+0x52a>
    8133:	48 8b 85 b8 fe ff ff 	mov    -0x148(%rbp),%rax
    813a:	48 8b 40 68          	mov    0x68(%rax),%rax
    813e:	f2 0f 10 40 08       	movsd  0x8(%rax),%xmm0
    8143:	f2 0f 10 0d 45 98 ff 	movsd  -0x67bb(%rip),%xmm1        # 1990 <_IO_stdin_used+0x90>
    814a:	ff 
    814b:	66 0f 2e c1          	ucomisd %xmm1,%xmm0
    814f:	0f 86 09 00 00 00    	jbe    815e <_ZN3Box20getLightIntersectionE3RayPd+0x3fe>
    8155:	c6 45 ff 01          	movb   $0x1,-0x1(%rbp)
    8159:	e9 2c 01 00 00       	jmpq   828a <_ZN3Box20getLightIntersectionE3RayPd+0x52a>
    815e:	48 8b 85 b8 fe ff ff 	mov    -0x148(%rbp),%rax
    8165:	48 8b 48 68          	mov    0x68(%rax),%rcx
    8169:	48 89 8d 88 fe ff ff 	mov    %rcx,-0x178(%rbp)
    8170:	48 8d 8d dc fe ff ff 	lea    -0x124(%rbp),%rcx
    8177:	48 89 8d 90 fe ff ff 	mov    %rcx,-0x170(%rbp)
    817e:	f2 0f 10 45 88       	movsd  -0x78(%rbp),%xmm0
    8183:	f2 0f 5e 40 70       	divsd  0x70(%rax),%xmm0
    8188:	f2 0f 10 0d e0 97 ff 	movsd  -0x6820(%rip),%xmm1        # 1970 <_IO_stdin_used+0x70>
    818f:	ff 
    8190:	f2 0f 5c c1          	subsd  %xmm1,%xmm0
    8194:	e8 47 78 00 00       	callq  f9e0 <_Z3fixd>
    8199:	48 8b 85 b8 fe ff ff 	mov    -0x148(%rbp),%rax
    81a0:	f2 0f 11 85 98 fe ff 	movsd  %xmm0,-0x168(%rbp)
    81a7:	ff 
    81a8:	f2 0f 10 45 90       	movsd  -0x70(%rbp),%xmm0
    81ad:	f2 0f 5e 40 78       	divsd  0x78(%rax),%xmm0
    81b2:	f2 0f 10 0d b6 97 ff 	movsd  -0x684a(%rip),%xmm1        # 1970 <_IO_stdin_used+0x70>
    81b9:	ff 
    81ba:	f2 0f 5c c1          	subsd  %xmm1,%xmm0
    81be:	e8 1d 78 00 00       	callq  f9e0 <_Z3fixd>
    81c3:	48 8b bd 88 fe ff ff 	mov    -0x178(%rbp),%rdi
    81ca:	48 8b b5 90 fe ff ff 	mov    -0x170(%rbp),%rsi
    81d1:	0f 28 c8             	movaps %xmm0,%xmm1
    81d4:	f2 0f 10 85 98 fe ff 	movsd  -0x168(%rbp),%xmm0
    81db:	ff 
    81dc:	48 8b 07             	mov    (%rdi),%rax
    81df:	48 8d 95 d0 fe ff ff 	lea    -0x130(%rbp),%rdx
    81e6:	48 8d 8d c8 fe ff ff 	lea    -0x138(%rbp),%rcx
    81ed:	4c 8d 85 c0 fe ff ff 	lea    -0x140(%rbp),%r8
    81f4:	ff 10                	callq  *(%rax)
    81f6:	f2 0f 10 85 c8 fe ff 	movsd  -0x138(%rbp),%xmm0
    81fd:	ff 
    81fe:	f2 0f 10 0d 8a 97 ff 	movsd  -0x6876(%rip),%xmm1        # 1990 <_IO_stdin_used+0x90>
    8205:	ff 
    8206:	66 0f 2e c1          	ucomisd %xmm1,%xmm0
    820a:	0f 86 09 00 00 00    	jbe    8219 <_ZN3Box20getLightIntersectionE3RayPd+0x4b9>
    8210:	c6 45 ff 01          	movb   $0x1,-0x1(%rbp)
    8214:	e9 71 00 00 00       	jmpq   828a <_ZN3Box20getLightIntersectionE3RayPd+0x52a>
    8219:	0f b6 85 dc fe ff ff 	movzbl -0x124(%rbp),%eax
    8220:	f2 0f 2a c0          	cvtsi2sd %eax,%xmm0
    8224:	f2 0f 10 0d e4 96 ff 	movsd  -0x691c(%rip),%xmm1        # 1910 <_IO_stdin_used+0x10>
    822b:	ff 
    822c:	f2 0f 5e c1          	divsd  %xmm1,%xmm0
    8230:	48 8b 45 e8          	mov    -0x18(%rbp),%rax
    8234:	f2 0f 59 00          	mulsd  (%rax),%xmm0
    8238:	f2 0f 11 00          	movsd  %xmm0,(%rax)
    823c:	0f b6 85 dd fe ff ff 	movzbl -0x123(%rbp),%eax
    8243:	f2 0f 2a c0          	cvtsi2sd %eax,%xmm0
    8247:	f2 0f 10 0d c1 96 ff 	movsd  -0x693f(%rip),%xmm1        # 1910 <_IO_stdin_used+0x10>
    824e:	ff 
    824f:	f2 0f 5e c1          	divsd  %xmm1,%xmm0
    8253:	48 8b 45 e8          	mov    -0x18(%rbp),%rax
    8257:	f2 0f 59 40 08       	mulsd  0x8(%rax),%xmm0
    825c:	f2 0f 11 40 08       	movsd  %xmm0,0x8(%rax)
    8261:	0f b6 85 de fe ff ff 	movzbl -0x122(%rbp),%eax
    8268:	f2 0f 2a c0          	cvtsi2sd %eax,%xmm0
    826c:	f2 0f 10 0d 9c 96 ff 	movsd  -0x6964(%rip),%xmm1        # 1910 <_IO_stdin_used+0x10>
    8273:	ff 
    8274:	f2 0f 5e c1          	divsd  %xmm1,%xmm0
    8278:	48 8b 45 e8          	mov    -0x18(%rbp),%rax
    827c:	f2 0f 59 40 10       	mulsd  0x10(%rax),%xmm0
    8281:	f2 0f 11 40 10       	movsd  %xmm0,0x10(%rax)
    8286:	c6 45 ff 00          	movb   $0x0,-0x1(%rbp)
    828a:	8a 45 ff             	mov    -0x1(%rbp),%al
    828d:	24 01                	and    $0x1,%al
    828f:	0f b6 c0             	movzbl %al,%eax
    8292:	48 81 c4 e0 01 00 00 	add    $0x1e0,%rsp
    8299:	5d                   	pop    %rbp
    829a:	c3                   	retq   
    829b:	cc                   	int3   
    829c:	cc                   	int3   
    829d:	cc                   	int3   
    829e:	cc                   	int3   
    829f:	cc                   	int3   

00000000000082a0 <_ZNSt14numeric_limitsIdE8infinityEv>:
    82a0:	55                   	push   %rbp
    82a1:	48 89 e5             	mov    %rsp,%rbp
    82a4:	f2 0f 10 05 d4 96 ff 	movsd  -0x692c(%rip),%xmm0        # 1980 <_IO_stdin_used+0x80>
    82ab:	ff 
    82ac:	5d                   	pop    %rbp
    82ad:	c3                   	retq   
    82ae:	cc                   	int3   
    82af:	cc                   	int3   

00000000000082b0 <_ZN6CameraC1ERK6Vector>:
    82b0:	55                   	push   %rbp
    82b1:	48 89 e5             	mov    %rsp,%rbp
    82b4:	48 83 ec 10          	sub    $0x10,%rsp
    82b8:	48 89 7d f8          	mov    %rdi,-0x8(%rbp)
    82bc:	48 89 75 f0          	mov    %rsi,-0x10(%rbp)
    82c0:	48 8b 7d f8          	mov    -0x8(%rbp),%rdi
    82c4:	48 8b 45 f0          	mov    -0x10(%rbp),%rax
    82c8:	48 8b 08             	mov    (%rax),%rcx
    82cb:	48 89 0f             	mov    %rcx,(%rdi)
    82ce:	48 8b 48 08          	mov    0x8(%rax),%rcx
    82d2:	48 89 4f 08          	mov    %rcx,0x8(%rdi)
    82d6:	48 8b 40 10          	mov    0x10(%rax),%rax
    82da:	48 89 47 10          	mov    %rax,0x10(%rdi)
    82de:	48 8b 45 f0          	mov    -0x10(%rbp),%rax
    82e2:	48 8b 08             	mov    (%rax),%rcx
    82e5:	48 89 4f 18          	mov    %rcx,0x18(%rdi)
    82e9:	48 8b 48 08          	mov    0x8(%rax),%rcx
    82ed:	48 89 4f 20          	mov    %rcx,0x20(%rdi)
    82f1:	48 8b 40 10          	mov    0x10(%rax),%rax
    82f5:	48 89 47 28          	mov    %rax,0x28(%rdi)
    82f9:	48 8b 45 f0          	mov    -0x10(%rbp),%rax
    82fd:	48 8b 08             	mov    (%rax),%rcx
    8300:	48 89 4f 30          	mov    %rcx,0x30(%rdi)
    8304:	48 8b 48 08          	mov    0x8(%rax),%rcx
    8308:	48 89 4f 38          	mov    %rcx,0x38(%rdi)
    830c:	48 8b 40 10          	mov    0x10(%rax),%rax
    8310:	48 89 47 40          	mov    %rax,0x40(%rdi)
    8314:	48 8b 45 f0          	mov    -0x10(%rbp),%rax
    8318:	48 8b 08             	mov    (%rax),%rcx
    831b:	48 89 4f 48          	mov    %rcx,0x48(%rdi)
    831f:	48 8b 48 08          	mov    0x8(%rax),%rcx
    8323:	48 89 4f 50          	mov    %rcx,0x50(%rdi)
    8327:	48 8b 40 10          	mov    0x10(%rax),%rax
    832b:	48 89 47 58          	mov    %rax,0x58(%rdi)
    832f:	0f 57 d2             	xorps  %xmm2,%xmm2
    8332:	0f 28 c2             	movaps %xmm2,%xmm0
    8335:	0f 28 ca             	movaps %xmm2,%xmm1
    8338:	e8 13 00 00 00       	callq  8350 <_ZN6Camera9setAnglesEddd>
    833d:	48 83 c4 10          	add    $0x10,%rsp
    8341:	5d                   	pop    %rbp
    8342:	c3                   	retq   
    8343:	66 66 66 66 2e 0f 1f 	data16 data16 data16 nopw %cs:0x0(%rax,%rax,1)
    834a:	84 00 00 00 00 00 

0000000000008350 <_ZN6Camera9setAnglesEddd>:
    8350:	55                   	push   %rbp
    8351:	48 89 e5             	mov    %rsp,%rbp
    8354:	48 83 ec 30          	sub    $0x30,%rsp
    8358:	48 89 7d f8          	mov    %rdi,-0x8(%rbp)
    835c:	f2 0f 11 45 f0       	movsd  %xmm0,-0x10(%rbp)
    8361:	f2 0f 11 4d e8       	movsd  %xmm1,-0x18(%rbp)
    8366:	f2 0f 11 55 e0       	movsd  %xmm2,-0x20(%rbp)
    836b:	48 8b 45 f8          	mov    -0x8(%rbp),%rax
    836f:	48 89 45 d8          	mov    %rax,-0x28(%rbp)
    8373:	f2 0f 10 45 f0       	movsd  -0x10(%rbp),%xmm0
    8378:	f2 0f 11 80 90 00 00 	movsd  %xmm0,0x90(%rax)
    837f:	00 
    8380:	f2 0f 10 45 e8       	movsd  -0x18(%rbp),%xmm0
    8385:	f2 0f 11 80 98 00 00 	movsd  %xmm0,0x98(%rax)
    838c:	00 
    838d:	f2 0f 10 45 e0       	movsd  -0x20(%rbp),%xmm0
    8392:	f2 0f 11 80 a0 00 00 	movsd  %xmm0,0xa0(%rax)
    8399:	00 
    839a:	f2 0f 10 80 90 00 00 	movsd  0x90(%rax),%xmm0
    83a1:	00 
    83a2:	e8 b9 79 00 00       	callq  fd60 <cos@plt>
    83a7:	48 8b 45 d8          	mov    -0x28(%rbp),%rax
    83ab:	f2 0f 11 40 60       	movsd  %xmm0,0x60(%rax)
    83b0:	f2 0f 10 80 90 00 00 	movsd  0x90(%rax),%xmm0
    83b7:	00 
    83b8:	e8 93 79 00 00       	callq  fd50 <sin@plt>
    83bd:	48 8b 45 d8          	mov    -0x28(%rbp),%rax
    83c1:	f2 0f 11 40 68       	movsd  %xmm0,0x68(%rax)
    83c6:	f2 0f 10 80 98 00 00 	movsd  0x98(%rax),%xmm0
    83cd:	00 
    83ce:	e8 8d 79 00 00       	callq  fd60 <cos@plt>
    83d3:	48 8b 45 d8          	mov    -0x28(%rbp),%rax
    83d7:	f2 0f 11 40 70       	movsd  %xmm0,0x70(%rax)
    83dc:	f2 0f 10 80 98 00 00 	movsd  0x98(%rax),%xmm0
    83e3:	00 
    83e4:	e8 67 79 00 00       	callq  fd50 <sin@plt>
    83e9:	48 8b 45 d8          	mov    -0x28(%rbp),%rax
    83ed:	f2 0f 11 40 78       	movsd  %xmm0,0x78(%rax)
    83f2:	f2 0f 10 80 a0 00 00 	movsd  0xa0(%rax),%xmm0
    83f9:	00 
    83fa:	e8 61 79 00 00       	callq  fd60 <cos@plt>
    83ff:	48 8b 45 d8          	mov    -0x28(%rbp),%rax
    8403:	f2 0f 11 80 80 00 00 	movsd  %xmm0,0x80(%rax)
    840a:	00 
    840b:	f2 0f 10 80 a0 00 00 	movsd  0xa0(%rax),%xmm0
    8412:	00 
    8413:	e8 38 79 00 00       	callq  fd50 <sin@plt>
    8418:	48 8b 45 d8          	mov    -0x28(%rbp),%rax
    841c:	f2 0f 11 80 88 00 00 	movsd  %xmm0,0x88(%rax)
    8423:	00 
    8424:	f2 0f 10 40 68       	movsd  0x68(%rax),%xmm0
    8429:	f2 0f 59 40 70       	mulsd  0x70(%rax),%xmm0
    842e:	f2 0f 10 90 80 00 00 	movsd  0x80(%rax),%xmm2
    8435:	00 
    8436:	f2 0f 10 48 78       	movsd  0x78(%rax),%xmm1
    843b:	f2 0f 59 88 88 00 00 	mulsd  0x88(%rax),%xmm1
    8442:	00 
    8443:	f2 0f 59 c2          	mulsd  %xmm2,%xmm0
    8447:	f2 0f 58 c1          	addsd  %xmm1,%xmm0
    844b:	f2 0f 11 40 48       	movsd  %xmm0,0x48(%rax)
    8450:	f2 0f 10 40 78       	movsd  0x78(%rax),%xmm0
    8455:	f2 0f 10 90 80 00 00 	movsd  0x80(%rax),%xmm2
    845c:	00 
    845d:	f2 0f 10 48 68       	movsd  0x68(%rax),%xmm1
    8462:	f2 0f 59 48 70       	mulsd  0x70(%rax),%xmm1
    8467:	f2 0f 59 88 88 00 00 	mulsd  0x88(%rax),%xmm1
    846e:	00 
    846f:	66 48 0f 7e c9       	movq   %xmm1,%rcx
    8474:	48 ba 00 00 00 00 00 	movabs $0x8000000000000000,%rdx
    847b:	00 00 80 
    847e:	48 31 d1             	xor    %rdx,%rcx
    8481:	66 48 0f 6e c9       	movq   %rcx,%xmm1
    8486:	f2 0f 59 c2          	mulsd  %xmm2,%xmm0
    848a:	f2 0f 58 c1          	addsd  %xmm1,%xmm0
    848e:	f2 0f 11 40 50       	movsd  %xmm0,0x50(%rax)
    8493:	f2 0f 10 40 60       	movsd  0x60(%rax),%xmm0
    8498:	f2 0f 59 40 70       	mulsd  0x70(%rax),%xmm0
    849d:	f2 0f 11 40 58       	movsd  %xmm0,0x58(%rax)
    84a2:	f2 0f 10 40 68       	movsd  0x68(%rax),%xmm0
    84a7:	66 48 0f 7e c1       	movq   %xmm0,%rcx
    84ac:	48 ba 00 00 00 00 00 	movabs $0x8000000000000000,%rdx
    84b3:	00 00 80 
    84b6:	48 31 d1             	xor    %rdx,%rcx
    84b9:	66 48 0f 6e c1       	movq   %rcx,%xmm0
    84be:	f2 0f 59 40 78       	mulsd  0x78(%rax),%xmm0
    84c3:	f2 0f 10 90 80 00 00 	movsd  0x80(%rax),%xmm2
    84ca:	00 
    84cb:	f2 0f 10 48 70       	movsd  0x70(%rax),%xmm1
    84d0:	f2 0f 59 88 88 00 00 	mulsd  0x88(%rax),%xmm1
    84d7:	00 
    84d8:	f2 0f 59 c2          	mulsd  %xmm2,%xmm0
    84dc:	f2 0f 58 c1          	addsd  %xmm1,%xmm0
    84e0:	f2 0f 11 40 30       	movsd  %xmm0,0x30(%rax)
    84e5:	f2 0f 10 40 70       	movsd  0x70(%rax),%xmm0
    84ea:	f2 0f 10 90 80 00 00 	movsd  0x80(%rax),%xmm2
    84f1:	00 
    84f2:	f2 0f 10 48 68       	movsd  0x68(%rax),%xmm1
    84f7:	f2 0f 59 48 78       	mulsd  0x78(%rax),%xmm1
    84fc:	f2 0f 59 88 88 00 00 	mulsd  0x88(%rax),%xmm1
    8503:	00 
    8504:	f2 0f 59 c2          	mulsd  %xmm2,%xmm0
    8508:	f2 0f 58 c1          	addsd  %xmm1,%xmm0
    850c:	f2 0f 11 40 38       	movsd  %xmm0,0x38(%rax)
    8511:	f2 0f 10 40 60       	movsd  0x60(%rax),%xmm0
    8516:	66 48 0f 7e c1       	movq   %xmm0,%rcx
    851b:	48 ba 00 00 00 00 00 	movabs $0x8000000000000000,%rdx
    8522:	00 00 80 
    8525:	48 31 d1             	xor    %rdx,%rcx
    8528:	66 48 0f 6e c1       	movq   %rcx,%xmm0
    852d:	f2 0f 59 40 78       	mulsd  0x78(%rax),%xmm0
    8532:	f2 0f 11 40 40       	movsd  %xmm0,0x40(%rax)
    8537:	f2 0f 10 40 60       	movsd  0x60(%rax),%xmm0
    853c:	f2 0f 59 80 80 00 00 	mulsd  0x80(%rax),%xmm0
    8543:	00 
    8544:	f2 0f 11 40 18       	movsd  %xmm0,0x18(%rax)
    8549:	f2 0f 10 40 60       	movsd  0x60(%rax),%xmm0
    854e:	66 48 0f 7e c1       	movq   %xmm0,%rcx
    8553:	48 ba 00 00 00 00 00 	movabs $0x8000000000000000,%rdx
    855a:	00 00 80 
    855d:	48 31 d1             	xor    %rdx,%rcx
    8560:	66 48 0f 6e c1       	movq   %rcx,%xmm0
    8565:	f2 0f 59 80 88 00 00 	mulsd  0x88(%rax),%xmm0
    856c:	00 
    856d:	f2 0f 11 40 20       	movsd  %xmm0,0x20(%rax)
    8572:	f2 0f 10 40 68       	movsd  0x68(%rax),%xmm0
    8577:	66 48 0f 7e c1       	movq   %xmm0,%rcx
    857c:	48 ba 00 00 00 00 00 	movabs $0x8000000000000000,%rdx
    8583:	00 00 80 
    8586:	48 31 d1             	xor    %rdx,%rcx
    8589:	66 48 0f 6e c1       	movq   %rcx,%xmm0
    858e:	f2 0f 11 40 28       	movsd  %xmm0,0x28(%rax)
    8593:	48 83 c4 30          	add    $0x30,%rsp
    8597:	5d                   	pop    %rbp
    8598:	c3                   	retq   
    8599:	0f 1f 80 00 00 00 00 	nopl   0x0(%rax)

00000000000085a0 <_ZN6CameraC1ERK6Vectorddd>:
    85a0:	55                   	push   %rbp
    85a1:	48 89 e5             	mov    %rsp,%rbp
    85a4:	48 83 ec 30          	sub    $0x30,%rsp
    85a8:	48 89 7d f8          	mov    %rdi,-0x8(%rbp)
    85ac:	48 89 75 f0          	mov    %rsi,-0x10(%rbp)
    85b0:	f2 0f 11 45 e8       	movsd  %xmm0,-0x18(%rbp)
    85b5:	f2 0f 11 4d e0       	movsd  %xmm1,-0x20(%rbp)
    85ba:	f2 0f 11 55 d8       	movsd  %xmm2,-0x28(%rbp)
    85bf:	48 8b 7d f8          	mov    -0x8(%rbp),%rdi
    85c3:	48 8b 45 f0          	mov    -0x10(%rbp),%rax
    85c7:	48 8b 08             	mov    (%rax),%rcx
    85ca:	48 89 0f             	mov    %rcx,(%rdi)
    85cd:	48 8b 48 08          	mov    0x8(%rax),%rcx
    85d1:	48 89 4f 08          	mov    %rcx,0x8(%rdi)
    85d5:	48 8b 40 10          	mov    0x10(%rax),%rax
    85d9:	48 89 47 10          	mov    %rax,0x10(%rdi)
    85dd:	48 8b 45 f0          	mov    -0x10(%rbp),%rax
    85e1:	48 8b 08             	mov    (%rax),%rcx
    85e4:	48 89 4f 18          	mov    %rcx,0x18(%rdi)
    85e8:	48 8b 48 08          	mov    0x8(%rax),%rcx
    85ec:	48 89 4f 20          	mov    %rcx,0x20(%rdi)
    85f0:	48 8b 40 10          	mov    0x10(%rax),%rax
    85f4:	48 89 47 28          	mov    %rax,0x28(%rdi)
    85f8:	48 8b 45 f0          	mov    -0x10(%rbp),%rax
    85fc:	48 8b 08             	mov    (%rax),%rcx
    85ff:	48 89 4f 30          	mov    %rcx,0x30(%rdi)
    8603:	48 8b 48 08          	mov    0x8(%rax),%rcx
    8607:	48 89 4f 38          	mov    %rcx,0x38(%rdi)
    860b:	48 8b 40 10          	mov    0x10(%rax),%rax
    860f:	48 89 47 40          	mov    %rax,0x40(%rdi)
    8613:	48 8b 45 f0          	mov    -0x10(%rbp),%rax
    8617:	48 8b 08             	mov    (%rax),%rcx
    861a:	48 89 4f 48          	mov    %rcx,0x48(%rdi)
    861e:	48 8b 48 08          	mov    0x8(%rax),%rcx
    8622:	48 89 4f 50          	mov    %rcx,0x50(%rdi)
    8626:	48 8b 40 10          	mov    0x10(%rax),%rax
    862a:	48 89 47 58          	mov    %rax,0x58(%rdi)
    862e:	f2 0f 10 45 e8       	movsd  -0x18(%rbp),%xmm0
    8633:	f2 0f 10 4d e0       	movsd  -0x20(%rbp),%xmm1
    8638:	f2 0f 10 55 d8       	movsd  -0x28(%rbp),%xmm2
    863d:	e8 0e fd ff ff       	callq  8350 <_ZN6Camera9setAnglesEddd>
    8642:	48 83 c4 30          	add    $0x30,%rsp
    8646:	5d                   	pop    %rbp
    8647:	c3                   	retq   
    8648:	0f 1f 84 00 00 00 00 	nopl   0x0(%rax,%rax,1)
    864f:	00 

0000000000008650 <_ZN6Camera6setYawEd>:
    8650:	55                   	push   %rbp
    8651:	48 89 e5             	mov    %rsp,%rbp
    8654:	48 83 ec 20          	sub    $0x20,%rsp
    8658:	48 89 7d f8          	mov    %rdi,-0x8(%rbp)
    865c:	f2 0f 11 45 f0       	movsd  %xmm0,-0x10(%rbp)
    8661:	48 8b 45 f8          	mov    -0x8(%rbp),%rax
    8665:	48 89 45 e8          	mov    %rax,-0x18(%rbp)
    8669:	f2 0f 10 45 f0       	movsd  -0x10(%rbp),%xmm0
    866e:	f2 0f 11 80 90 00 00 	movsd  %xmm0,0x90(%rax)
    8675:	00 
    8676:	f2 0f 10 80 90 00 00 	movsd  0x90(%rax),%xmm0
    867d:	00 
    867e:	e8 dd 76 00 00       	callq  fd60 <cos@plt>
    8683:	48 8b 45 e8          	mov    -0x18(%rbp),%rax
    8687:	f2 0f 11 40 60       	movsd  %xmm0,0x60(%rax)
    868c:	f2 0f 10 80 90 00 00 	movsd  0x90(%rax),%xmm0
    8693:	00 
    8694:	e8 b7 76 00 00       	callq  fd50 <sin@plt>
    8699:	48 8b 45 e8          	mov    -0x18(%rbp),%rax
    869d:	f2 0f 11 40 68       	movsd  %xmm0,0x68(%rax)
    86a2:	f2 0f 10 40 68       	movsd  0x68(%rax),%xmm0
    86a7:	f2 0f 59 40 70       	mulsd  0x70(%rax),%xmm0
    86ac:	f2 0f 10 90 80 00 00 	movsd  0x80(%rax),%xmm2
    86b3:	00 
    86b4:	f2 0f 10 48 78       	movsd  0x78(%rax),%xmm1
    86b9:	f2 0f 59 88 88 00 00 	mulsd  0x88(%rax),%xmm1
    86c0:	00 
    86c1:	f2 0f 59 c2          	mulsd  %xmm2,%xmm0
    86c5:	f2 0f 58 c1          	addsd  %xmm1,%xmm0
    86c9:	f2 0f 11 40 48       	movsd  %xmm0,0x48(%rax)
    86ce:	f2 0f 10 40 78       	movsd  0x78(%rax),%xmm0
    86d3:	f2 0f 10 90 80 00 00 	movsd  0x80(%rax),%xmm2
    86da:	00 
    86db:	f2 0f 10 48 68       	movsd  0x68(%rax),%xmm1
    86e0:	f2 0f 59 48 70       	mulsd  0x70(%rax),%xmm1
    86e5:	f2 0f 59 88 88 00 00 	mulsd  0x88(%rax),%xmm1
    86ec:	00 
    86ed:	66 48 0f 7e c9       	movq   %xmm1,%rcx
    86f2:	48 ba 00 00 00 00 00 	movabs $0x8000000000000000,%rdx
    86f9:	00 00 80 
    86fc:	48 31 d1             	xor    %rdx,%rcx
    86ff:	66 48 0f 6e c9       	movq   %rcx,%xmm1
    8704:	f2 0f 59 c2          	mulsd  %xmm2,%xmm0
    8708:	f2 0f 58 c1          	addsd  %xmm1,%xmm0
    870c:	f2 0f 11 40 50       	movsd  %xmm0,0x50(%rax)
    8711:	f2 0f 10 40 60       	movsd  0x60(%rax),%xmm0
    8716:	f2 0f 59 40 70       	mulsd  0x70(%rax),%xmm0
    871b:	f2 0f 11 40 58       	movsd  %xmm0,0x58(%rax)
    8720:	f2 0f 10 40 68       	movsd  0x68(%rax),%xmm0
    8725:	66 48 0f 7e c1       	movq   %xmm0,%rcx
    872a:	48 ba 00 00 00 00 00 	movabs $0x8000000000000000,%rdx
    8731:	00 00 80 
    8734:	48 31 d1             	xor    %rdx,%rcx
    8737:	66 48 0f 6e c1       	movq   %rcx,%xmm0
    873c:	f2 0f 59 40 78       	mulsd  0x78(%rax),%xmm0
    8741:	f2 0f 10 90 80 00 00 	movsd  0x80(%rax),%xmm2
    8748:	00 
    8749:	f2 0f 10 48 70       	movsd  0x70(%rax),%xmm1
    874e:	f2 0f 59 88 88 00 00 	mulsd  0x88(%rax),%xmm1
    8755:	00 
    8756:	f2 0f 59 c2          	mulsd  %xmm2,%xmm0
    875a:	f2 0f 58 c1          	addsd  %xmm1,%xmm0
    875e:	f2 0f 11 40 30       	movsd  %xmm0,0x30(%rax)
    8763:	f2 0f 10 40 70       	movsd  0x70(%rax),%xmm0
    8768:	f2 0f 10 90 80 00 00 	movsd  0x80(%rax),%xmm2
    876f:	00 
    8770:	f2 0f 10 48 68       	movsd  0x68(%rax),%xmm1
    8775:	f2 0f 59 48 78       	mulsd  0x78(%rax),%xmm1
    877a:	f2 0f 59 88 88 00 00 	mulsd  0x88(%rax),%xmm1
    8781:	00 
    8782:	f2 0f 59 c2          	mulsd  %xmm2,%xmm0
    8786:	f2 0f 58 c1          	addsd  %xmm1,%xmm0
    878a:	f2 0f 11 40 38       	movsd  %xmm0,0x38(%rax)
    878f:	f2 0f 10 40 60       	movsd  0x60(%rax),%xmm0
    8794:	66 48 0f 7e c1       	movq   %xmm0,%rcx
    8799:	48 ba 00 00 00 00 00 	movabs $0x8000000000000000,%rdx
    87a0:	00 00 80 
    87a3:	48 31 d1             	xor    %rdx,%rcx
    87a6:	66 48 0f 6e c1       	movq   %rcx,%xmm0
    87ab:	f2 0f 59 40 78       	mulsd  0x78(%rax),%xmm0
    87b0:	f2 0f 11 40 40       	movsd  %xmm0,0x40(%rax)
    87b5:	f2 0f 10 40 60       	movsd  0x60(%rax),%xmm0
    87ba:	f2 0f 59 80 80 00 00 	mulsd  0x80(%rax),%xmm0
    87c1:	00 
    87c2:	f2 0f 11 40 18       	movsd  %xmm0,0x18(%rax)
    87c7:	f2 0f 10 40 60       	movsd  0x60(%rax),%xmm0
    87cc:	66 48 0f 7e c1       	movq   %xmm0,%rcx
    87d1:	48 ba 00 00 00 00 00 	movabs $0x8000000000000000,%rdx
    87d8:	00 00 80 
    87db:	48 31 d1             	xor    %rdx,%rcx
    87de:	66 48 0f 6e c1       	movq   %rcx,%xmm0
    87e3:	f2 0f 59 80 88 00 00 	mulsd  0x88(%rax),%xmm0
    87ea:	00 
    87eb:	f2 0f 11 40 20       	movsd  %xmm0,0x20(%rax)
    87f0:	f2 0f 10 40 68       	movsd  0x68(%rax),%xmm0
    87f5:	66 48 0f 7e c1       	movq   %xmm0,%rcx
    87fa:	48 ba 00 00 00 00 00 	movabs $0x8000000000000000,%rdx
    8801:	00 00 80 
    8804:	48 31 d1             	xor    %rdx,%rcx
    8807:	66 48 0f 6e c1       	movq   %rcx,%xmm0
    880c:	f2 0f 11 40 28       	movsd  %xmm0,0x28(%rax)
    8811:	48 83 c4 20          	add    $0x20,%rsp
    8815:	5d                   	pop    %rbp
    8816:	c3                   	retq   
    8817:	66 0f 1f 84 00 00 00 	nopw   0x0(%rax,%rax,1)
    881e:	00 00 

0000000000008820 <_ZN6Camera8setPitchEd>:
    8820:	55                   	push   %rbp
    8821:	48 89 e5             	mov    %rsp,%rbp
    8824:	48 83 ec 20          	sub    $0x20,%rsp
    8828:	48 89 7d f8          	mov    %rdi,-0x8(%rbp)
    882c:	f2 0f 11 45 f0       	movsd  %xmm0,-0x10(%rbp)
    8831:	48 8b 45 f8          	mov    -0x8(%rbp),%rax
    8835:	48 89 45 e8          	mov    %rax,-0x18(%rbp)
    8839:	f2 0f 10 45 f0       	movsd  -0x10(%rbp),%xmm0
    883e:	f2 0f 11 80 98 00 00 	movsd  %xmm0,0x98(%rax)
    8845:	00 
    8846:	f2 0f 10 80 98 00 00 	movsd  0x98(%rax),%xmm0
    884d:	00 
    884e:	e8 0d 75 00 00       	callq  fd60 <cos@plt>
    8853:	48 8b 45 e8          	mov    -0x18(%rbp),%rax
    8857:	f2 0f 11 40 70       	movsd  %xmm0,0x70(%rax)
    885c:	f2 0f 10 80 98 00 00 	movsd  0x98(%rax),%xmm0
    8863:	00 
    8864:	e8 e7 74 00 00       	callq  fd50 <sin@plt>
    8869:	48 8b 45 e8          	mov    -0x18(%rbp),%rax
    886d:	f2 0f 11 40 78       	movsd  %xmm0,0x78(%rax)
    8872:	f2 0f 10 40 68       	movsd  0x68(%rax),%xmm0
    8877:	f2 0f 59 40 70       	mulsd  0x70(%rax),%xmm0
    887c:	f2 0f 10 90 80 00 00 	movsd  0x80(%rax),%xmm2
    8883:	00 
    8884:	f2 0f 10 48 78       	movsd  0x78(%rax),%xmm1
    8889:	f2 0f 59 88 88 00 00 	mulsd  0x88(%rax),%xmm1
    8890:	00 
    8891:	f2 0f 59 c2          	mulsd  %xmm2,%xmm0
    8895:	f2 0f 58 c1          	addsd  %xmm1,%xmm0
    8899:	f2 0f 11 40 48       	movsd  %xmm0,0x48(%rax)
    889e:	f2 0f 10 40 78       	movsd  0x78(%rax),%xmm0
    88a3:	f2 0f 10 90 80 00 00 	movsd  0x80(%rax),%xmm2
    88aa:	00 
    88ab:	f2 0f 10 48 68       	movsd  0x68(%rax),%xmm1
    88b0:	f2 0f 59 48 70       	mulsd  0x70(%rax),%xmm1
    88b5:	f2 0f 59 88 88 00 00 	mulsd  0x88(%rax),%xmm1
    88bc:	00 
    88bd:	66 48 0f 7e c9       	movq   %xmm1,%rcx
    88c2:	48 ba 00 00 00 00 00 	movabs $0x8000000000000000,%rdx
    88c9:	00 00 80 
    88cc:	48 31 d1             	xor    %rdx,%rcx
    88cf:	66 48 0f 6e c9       	movq   %rcx,%xmm1
    88d4:	f2 0f 59 c2          	mulsd  %xmm2,%xmm0
    88d8:	f2 0f 58 c1          	addsd  %xmm1,%xmm0
    88dc:	f2 0f 11 40 50       	movsd  %xmm0,0x50(%rax)
    88e1:	f2 0f 10 40 60       	movsd  0x60(%rax),%xmm0
    88e6:	f2 0f 59 40 70       	mulsd  0x70(%rax),%xmm0
    88eb:	f2 0f 11 40 58       	movsd  %xmm0,0x58(%rax)
    88f0:	f2 0f 10 40 68       	movsd  0x68(%rax),%xmm0
    88f5:	66 48 0f 7e c1       	movq   %xmm0,%rcx
    88fa:	48 ba 00 00 00 00 00 	movabs $0x8000000000000000,%rdx
    8901:	00 00 80 
    8904:	48 31 d1             	xor    %rdx,%rcx
    8907:	66 48 0f 6e c1       	movq   %rcx,%xmm0
    890c:	f2 0f 59 40 78       	mulsd  0x78(%rax),%xmm0
    8911:	f2 0f 10 90 80 00 00 	movsd  0x80(%rax),%xmm2
    8918:	00 
    8919:	f2 0f 10 48 70       	movsd  0x70(%rax),%xmm1
    891e:	f2 0f 59 88 88 00 00 	mulsd  0x88(%rax),%xmm1
    8925:	00 
    8926:	f2 0f 59 c2          	mulsd  %xmm2,%xmm0
    892a:	f2 0f 58 c1          	addsd  %xmm1,%xmm0
    892e:	f2 0f 11 40 30       	movsd  %xmm0,0x30(%rax)
    8933:	f2 0f 10 40 70       	movsd  0x70(%rax),%xmm0
    8938:	f2 0f 10 90 80 00 00 	movsd  0x80(%rax),%xmm2
    893f:	00 
    8940:	f2 0f 10 48 68       	movsd  0x68(%rax),%xmm1
    8945:	f2 0f 59 48 78       	mulsd  0x78(%rax),%xmm1
    894a:	f2 0f 59 88 88 00 00 	mulsd  0x88(%rax),%xmm1
    8951:	00 
    8952:	f2 0f 59 c2          	mulsd  %xmm2,%xmm0
    8956:	f2 0f 58 c1          	addsd  %xmm1,%xmm0
    895a:	f2 0f 11 40 38       	movsd  %xmm0,0x38(%rax)
    895f:	f2 0f 10 40 60       	movsd  0x60(%rax),%xmm0
    8964:	66 48 0f 7e c1       	movq   %xmm0,%rcx
    8969:	48 ba 00 00 00 00 00 	movabs $0x8000000000000000,%rdx
    8970:	00 00 80 
    8973:	48 31 d1             	xor    %rdx,%rcx
    8976:	66 48 0f 6e c1       	movq   %rcx,%xmm0
    897b:	f2 0f 59 40 78       	mulsd  0x78(%rax),%xmm0
    8980:	f2 0f 11 40 40       	movsd  %xmm0,0x40(%rax)
    8985:	48 83 c4 20          	add    $0x20,%rsp
    8989:	5d                   	pop    %rbp
    898a:	c3                   	retq   
    898b:	0f 1f 44 00 00       	nopl   0x0(%rax,%rax,1)

0000000000008990 <_ZN6Camera7setRollEd>:
    8990:	55                   	push   %rbp
    8991:	48 89 e5             	mov    %rsp,%rbp
    8994:	48 83 ec 20          	sub    $0x20,%rsp
    8998:	48 89 7d f8          	mov    %rdi,-0x8(%rbp)
    899c:	f2 0f 11 45 f0       	movsd  %xmm0,-0x10(%rbp)
    89a1:	48 8b 45 f8          	mov    -0x8(%rbp),%rax
    89a5:	48 89 45 e8          	mov    %rax,-0x18(%rbp)
    89a9:	f2 0f 10 45 f0       	movsd  -0x10(%rbp),%xmm0
    89ae:	f2 0f 11 80 a0 00 00 	movsd  %xmm0,0xa0(%rax)
    89b5:	00 
    89b6:	f2 0f 10 80 a0 00 00 	movsd  0xa0(%rax),%xmm0
    89bd:	00 
    89be:	e8 9d 73 00 00       	callq  fd60 <cos@plt>
    89c3:	48 8b 45 e8          	mov    -0x18(%rbp),%rax
    89c7:	f2 0f 11 80 80 00 00 	movsd  %xmm0,0x80(%rax)
    89ce:	00 
    89cf:	f2 0f 10 80 a0 00 00 	movsd  0xa0(%rax),%xmm0
    89d6:	00 
    89d7:	e8 74 73 00 00       	callq  fd50 <sin@plt>
    89dc:	48 8b 45 e8          	mov    -0x18(%rbp),%rax
    89e0:	f2 0f 11 80 88 00 00 	movsd  %xmm0,0x88(%rax)
    89e7:	00 
    89e8:	f2 0f 10 40 68       	movsd  0x68(%rax),%xmm0
    89ed:	f2 0f 59 40 70       	mulsd  0x70(%rax),%xmm0
    89f2:	f2 0f 10 90 80 00 00 	movsd  0x80(%rax),%xmm2
    89f9:	00 
    89fa:	f2 0f 10 48 78       	movsd  0x78(%rax),%xmm1
    89ff:	f2 0f 59 88 88 00 00 	mulsd  0x88(%rax),%xmm1
    8a06:	00 
    8a07:	f2 0f 59 c2          	mulsd  %xmm2,%xmm0
    8a0b:	f2 0f 58 c1          	addsd  %xmm1,%xmm0
    8a0f:	f2 0f 11 40 48       	movsd  %xmm0,0x48(%rax)
    8a14:	f2 0f 10 40 78       	movsd  0x78(%rax),%xmm0
    8a19:	f2 0f 10 90 80 00 00 	movsd  0x80(%rax),%xmm2
    8a20:	00 
    8a21:	f2 0f 10 48 68       	movsd  0x68(%rax),%xmm1
    8a26:	f2 0f 59 48 70       	mulsd  0x70(%rax),%xmm1
    8a2b:	f2 0f 59 88 88 00 00 	mulsd  0x88(%rax),%xmm1
    8a32:	00 
    8a33:	66 48 0f 7e c9       	movq   %xmm1,%rcx
    8a38:	48 ba 00 00 00 00 00 	movabs $0x8000000000000000,%rdx
    8a3f:	00 00 80 
    8a42:	48 31 d1             	xor    %rdx,%rcx
    8a45:	66 48 0f 6e c9       	movq   %rcx,%xmm1
    8a4a:	f2 0f 59 c2          	mulsd  %xmm2,%xmm0
    8a4e:	f2 0f 58 c1          	addsd  %xmm1,%xmm0
    8a52:	f2 0f 11 40 50       	movsd  %xmm0,0x50(%rax)
    8a57:	f2 0f 10 40 68       	movsd  0x68(%rax),%xmm0
    8a5c:	66 48 0f 7e c1       	movq   %xmm0,%rcx
    8a61:	48 ba 00 00 00 00 00 	movabs $0x8000000000000000,%rdx
    8a68:	00 00 80 
    8a6b:	48 31 d1             	xor    %rdx,%rcx
    8a6e:	66 48 0f 6e c1       	movq   %rcx,%xmm0
    8a73:	f2 0f 59 40 78       	mulsd  0x78(%rax),%xmm0
    8a78:	f2 0f 10 90 80 00 00 	movsd  0x80(%rax),%xmm2
    8a7f:	00 
    8a80:	f2 0f 10 48 70       	movsd  0x70(%rax),%xmm1
    8a85:	f2 0f 59 88 88 00 00 	mulsd  0x88(%rax),%xmm1
    8a8c:	00 
    8a8d:	f2 0f 59 c2          	mulsd  %xmm2,%xmm0
    8a91:	f2 0f 58 c1          	addsd  %xmm1,%xmm0
    8a95:	f2 0f 11 40 30       	movsd  %xmm0,0x30(%rax)
    8a9a:	f2 0f 10 40 70       	movsd  0x70(%rax),%xmm0
    8a9f:	f2 0f 10 90 80 00 00 	movsd  0x80(%rax),%xmm2
    8aa6:	00 
    8aa7:	f2 0f 10 48 68       	movsd  0x68(%rax),%xmm1
    8aac:	f2 0f 59 48 78       	mulsd  0x78(%rax),%xmm1
    8ab1:	f2 0f 59 88 88 00 00 	mulsd  0x88(%rax),%xmm1
    8ab8:	00 
    8ab9:	f2 0f 59 c2          	mulsd  %xmm2,%xmm0
    8abd:	f2 0f 58 c1          	addsd  %xmm1,%xmm0
    8ac1:	f2 0f 11 40 38       	movsd  %xmm0,0x38(%rax)
    8ac6:	f2 0f 10 40 60       	movsd  0x60(%rax),%xmm0
    8acb:	f2 0f 59 80 80 00 00 	mulsd  0x80(%rax),%xmm0
    8ad2:	00 
    8ad3:	f2 0f 11 40 18       	movsd  %xmm0,0x18(%rax)
    8ad8:	f2 0f 10 40 60       	movsd  0x60(%rax),%xmm0
    8add:	66 48 0f 7e c1       	movq   %xmm0,%rcx
    8ae2:	48 ba 00 00 00 00 00 	movabs $0x8000000000000000,%rdx
    8ae9:	00 00 80 
    8aec:	48 31 d1             	xor    %rdx,%rcx
    8aef:	66 48 0f 6e c1       	movq   %rcx,%xmm0
    8af4:	f2 0f 59 80 88 00 00 	mulsd  0x88(%rax),%xmm0
    8afb:	00 
    8afc:	f2 0f 11 40 20       	movsd  %xmm0,0x20(%rax)
    8b01:	48 83 c4 20          	add    $0x20,%rsp
    8b05:	5d                   	pop    %rbp
    8b06:	c3                   	retq   
    8b07:	cc                   	int3   
    8b08:	cc                   	int3   
    8b09:	cc                   	int3   
    8b0a:	cc                   	int3   
    8b0b:	cc                   	int3   
    8b0c:	cc                   	int3   
    8b0d:	cc                   	int3   
    8b0e:	cc                   	int3   
    8b0f:	cc                   	int3   

0000000000008b10 <_ZN4DiskC1ERK6VectorP7Textureddddd>:
    8b10:	55                   	push   %rbp
    8b11:	48 89 e5             	mov    %rsp,%rbp
    8b14:	48 83 ec 50          	sub    $0x50,%rsp
    8b18:	48 89 7d f8          	mov    %rdi,-0x8(%rbp)
    8b1c:	48 89 75 f0          	mov    %rsi,-0x10(%rbp)
    8b20:	48 89 55 e8          	mov    %rdx,-0x18(%rbp)
    8b24:	f2 0f 11 45 e0       	movsd  %xmm0,-0x20(%rbp)
    8b29:	f2 0f 11 4d d8       	movsd  %xmm1,-0x28(%rbp)
    8b2e:	f2 0f 11 55 d0       	movsd  %xmm2,-0x30(%rbp)
    8b33:	f2 0f 11 5d c8       	movsd  %xmm3,-0x38(%rbp)
    8b38:	f2 0f 11 65 c0       	movsd  %xmm4,-0x40(%rbp)
    8b3d:	48 8b 7d f8          	mov    -0x8(%rbp),%rdi
    8b41:	48 89 7d b8          	mov    %rdi,-0x48(%rbp)
    8b45:	48 8b 75 f0          	mov    -0x10(%rbp),%rsi
    8b49:	48 8b 55 e8          	mov    -0x18(%rbp),%rdx
    8b4d:	f2 0f 10 45 e0       	movsd  -0x20(%rbp),%xmm0
    8b52:	f2 0f 10 4d d8       	movsd  -0x28(%rbp),%xmm1
    8b57:	f2 0f 10 55 d0       	movsd  -0x30(%rbp),%xmm2
    8b5c:	f2 0f 10 5d c8       	movsd  -0x38(%rbp),%xmm3
    8b61:	f2 0f 10 65 c0       	movsd  -0x40(%rbp),%xmm4
    8b66:	e8 35 11 00 00       	callq  9ca0 <_ZN5PlaneC1ERK6VectorP7Textureddddd>
    8b6b:	48 8b 45 b8          	mov    -0x48(%rbp),%rax
    8b6f:	48 8d 0d 8a 83 00 00 	lea    0x838a(%rip),%rcx        # 10f00 <_ZTV4Disk>
    8b76:	48 83 c1 10          	add    $0x10,%rcx
    8b7a:	48 89 08             	mov    %rcx,(%rax)
    8b7d:	48 83 c4 50          	add    $0x50,%rsp
    8b81:	5d                   	pop    %rbp
    8b82:	c3                   	retq   
    8b83:	66 66 66 66 2e 0f 1f 	data16 data16 data16 nopw %cs:0x0(%rax,%rax,1)
    8b8a:	84 00 00 00 00 00 

0000000000008b90 <_ZN4Disk15getIntersectionE3Ray>:
    8b90:	55                   	push   %rbp
    8b91:	48 89 e5             	mov    %rsp,%rbp
    8b94:	48 81 ec 90 01 00 00 	sub    $0x190,%rsp
    8b9b:	48 8d 75 10          	lea    0x10(%rbp),%rsi
    8b9f:	48 89 b5 e0 fe ff ff 	mov    %rsi,-0x120(%rbp)
    8ba6:	48 89 7d f0          	mov    %rdi,-0x10(%rbp)
    8baa:	48 8b 45 f0          	mov    -0x10(%rbp),%rax
    8bae:	48 89 85 e8 fe ff ff 	mov    %rax,-0x118(%rbp)
    8bb5:	48 8d 7d b8          	lea    -0x48(%rbp),%rdi
    8bb9:	ba 30 00 00 00       	mov    $0x30,%edx
    8bbe:	e8 fd 71 00 00       	callq  fdc0 <memcpy@plt>
    8bc3:	48 8b bd e8 fe ff ff 	mov    -0x118(%rbp),%rdi
    8bca:	0f 10 45 b8          	movups -0x48(%rbp),%xmm0
    8bce:	0f 10 4d c8          	movups -0x38(%rbp),%xmm1
    8bd2:	0f 10 55 d8          	movups -0x28(%rbp),%xmm2
    8bd6:	48 89 e0             	mov    %rsp,%rax
    8bd9:	0f 11 50 20          	movups %xmm2,0x20(%rax)
    8bdd:	0f 11 48 10          	movups %xmm1,0x10(%rax)
    8be1:	0f 11 00             	movups %xmm0,(%rax)
    8be4:	e8 47 1a 00 00       	callq  a630 <_ZN5Plane15getIntersectionE3Ray>
    8be9:	f2 0f 11 45 e8       	movsd  %xmm0,-0x18(%rbp)
    8bee:	f2 0f 10 45 e8       	movsd  -0x18(%rbp),%xmm0
    8bf3:	f2 0f 11 85 f0 fe ff 	movsd  %xmm0,-0x110(%rbp)
    8bfa:	ff 
    8bfb:	e8 a0 f6 ff ff       	callq  82a0 <_ZNSt14numeric_limitsIdE8infinityEv>
    8c00:	0f 28 c8             	movaps %xmm0,%xmm1
    8c03:	f2 0f 10 85 f0 fe ff 	movsd  -0x110(%rbp),%xmm0
    8c0a:	ff 
    8c0b:	66 0f 2e c1          	ucomisd %xmm1,%xmm0
    8c0f:	0f 85 15 00 00 00    	jne    8c2a <_ZN4Disk15getIntersectionE3Ray+0x9a>
    8c15:	0f 8a 0f 00 00 00    	jp     8c2a <_ZN4Disk15getIntersectionE3Ray+0x9a>
    8c1b:	f2 0f 10 45 e8       	movsd  -0x18(%rbp),%xmm0
    8c20:	f2 0f 11 45 f8       	movsd  %xmm0,-0x8(%rbp)
    8c25:	e9 25 02 00 00       	jmpq   8e4f <_ZN4Disk15getIntersectionE3Ray+0x2bf>
    8c2a:	48 8b 85 e8 fe ff ff 	mov    -0x118(%rbp),%rax
    8c31:	48 8b b5 e0 fe ff ff 	mov    -0x120(%rbp),%rsi
    8c38:	48 8b 88 c0 00 00 00 	mov    0xc0(%rax),%rcx
    8c3f:	48 89 4d 88          	mov    %rcx,-0x78(%rbp)
    8c43:	48 8b 88 c8 00 00 00 	mov    0xc8(%rax),%rcx
    8c4a:	48 89 4d 90          	mov    %rcx,-0x70(%rbp)
    8c4e:	48 8b 88 d0 00 00 00 	mov    0xd0(%rax),%rcx
    8c55:	48 89 4d 98          	mov    %rcx,-0x68(%rbp)
    8c59:	48 8b 88 d8 00 00 00 	mov    0xd8(%rax),%rcx
    8c60:	48 89 8d 70 ff ff ff 	mov    %rcx,-0x90(%rbp)
    8c67:	48 8b 88 e0 00 00 00 	mov    0xe0(%rax),%rcx
    8c6e:	48 89 8d 78 ff ff ff 	mov    %rcx,-0x88(%rbp)
    8c75:	48 8b 88 e8 00 00 00 	mov    0xe8(%rax),%rcx
    8c7c:	48 89 4d 80          	mov    %rcx,-0x80(%rbp)
    8c80:	48 8b 88 a8 00 00 00 	mov    0xa8(%rax),%rcx
    8c87:	48 89 8d 58 ff ff ff 	mov    %rcx,-0xa8(%rbp)
    8c8e:	48 8b 88 b0 00 00 00 	mov    0xb0(%rax),%rcx
    8c95:	48 89 8d 60 ff ff ff 	mov    %rcx,-0xa0(%rbp)
    8c9c:	48 8b 80 b8 00 00 00 	mov    0xb8(%rax),%rax
    8ca3:	48 89 85 68 ff ff ff 	mov    %rax,-0x98(%rbp)
    8caa:	48 83 c6 18          	add    $0x18,%rsi
    8cae:	f2 0f 10 45 e8       	movsd  -0x18(%rbp),%xmm0
    8cb3:	48 8d bd 10 ff ff ff 	lea    -0xf0(%rbp),%rdi
    8cba:	e8 e1 55 00 00       	callq  e2a0 <_ZN6VectormlEd>
    8cbf:	48 8b b5 e0 fe ff ff 	mov    -0x120(%rbp),%rsi
    8cc6:	48 8d bd 28 ff ff ff 	lea    -0xd8(%rbp),%rdi
    8ccd:	48 8d 85 10 ff ff ff 	lea    -0xf0(%rbp),%rax
    8cd4:	48 8b 08             	mov    (%rax),%rcx
    8cd7:	48 89 0c 24          	mov    %rcx,(%rsp)
    8cdb:	48 8b 48 08          	mov    0x8(%rax),%rcx
    8cdf:	48 89 4c 24 08       	mov    %rcx,0x8(%rsp)
    8ce4:	48 8b 40 10          	mov    0x10(%rax),%rax
    8ce8:	48 89 44 24 10       	mov    %rax,0x10(%rsp)
    8ced:	e8 5e 55 00 00       	callq  e250 <_ZN6VectorplES_>
    8cf2:	48 8b 85 e8 fe ff ff 	mov    -0x118(%rbp),%rax
    8cf9:	48 8b 48 50          	mov    0x50(%rax),%rcx
    8cfd:	48 89 8d f8 fe ff ff 	mov    %rcx,-0x108(%rbp)
    8d04:	48 8b 48 58          	mov    0x58(%rax),%rcx
    8d08:	48 89 8d 00 ff ff ff 	mov    %rcx,-0x100(%rbp)
    8d0f:	48 8b 40 60          	mov    0x60(%rax),%rax
    8d13:	48 89 85 08 ff ff ff 	mov    %rax,-0xf8(%rbp)
    8d1a:	48 8d bd 40 ff ff ff 	lea    -0xc0(%rbp),%rdi
    8d21:	48 8d b5 28 ff ff ff 	lea    -0xd8(%rbp),%rsi
    8d28:	48 8d 85 f8 fe ff ff 	lea    -0x108(%rbp),%rax
    8d2f:	48 8b 08             	mov    (%rax),%rcx
    8d32:	48 89 0c 24          	mov    %rcx,(%rsp)
    8d36:	48 8b 48 08          	mov    0x8(%rax),%rcx
    8d3a:	48 89 4c 24 08       	mov    %rcx,0x8(%rsp)
    8d3f:	48 8b 40 10          	mov    0x10(%rax),%rax
    8d43:	48 89 44 24 10       	mov    %rax,0x10(%rsp)
    8d48:	e8 b3 54 00 00       	callq  e200 <_ZN6VectormiES_>
    8d4d:	48 8d 7d a0          	lea    -0x60(%rbp),%rdi
    8d51:	48 8d 75 88          	lea    -0x78(%rbp),%rsi
    8d55:	48 8d 95 70 ff ff ff 	lea    -0x90(%rbp),%rdx
    8d5c:	48 8d 8d 58 ff ff ff 	lea    -0xa8(%rbp),%rcx
    8d63:	48 8d 85 40 ff ff ff 	lea    -0xc0(%rbp),%rax
    8d6a:	4c 8b 06             	mov    (%rsi),%r8
    8d6d:	4c 89 04 24          	mov    %r8,(%rsp)
    8d71:	4c 8b 46 08          	mov    0x8(%rsi),%r8
    8d75:	4c 89 44 24 08       	mov    %r8,0x8(%rsp)
    8d7a:	48 8b 76 10          	mov    0x10(%rsi),%rsi
    8d7e:	48 89 74 24 10       	mov    %rsi,0x10(%rsp)
    8d83:	48 8b 32             	mov    (%rdx),%rsi
    8d86:	48 89 74 24 18       	mov    %rsi,0x18(%rsp)
    8d8b:	48 8b 72 08          	mov    0x8(%rdx),%rsi
    8d8f:	48 89 74 24 20       	mov    %rsi,0x20(%rsp)
    8d94:	48 8b 52 10          	mov    0x10(%rdx),%rdx
    8d98:	48 89 54 24 28       	mov    %rdx,0x28(%rsp)
    8d9d:	48 8b 11             	mov    (%rcx),%rdx
    8da0:	48 89 54 24 30       	mov    %rdx,0x30(%rsp)
    8da5:	48 8b 51 08          	mov    0x8(%rcx),%rdx
    8da9:	48 89 54 24 38       	mov    %rdx,0x38(%rsp)
    8dae:	48 8b 49 10          	mov    0x10(%rcx),%rcx
    8db2:	48 89 4c 24 40       	mov    %rcx,0x40(%rsp)
    8db7:	48 8b 08             	mov    (%rax),%rcx
    8dba:	48 89 4c 24 48       	mov    %rcx,0x48(%rsp)
    8dbf:	48 8b 48 08          	mov    0x8(%rax),%rcx
    8dc3:	48 89 4c 24 50       	mov    %rcx,0x50(%rsp)
    8dc8:	48 8b 40 10          	mov    0x10(%rax),%rax
    8dcc:	48 89 44 24 58       	mov    %rax,0x58(%rsp)
    8dd1:	e8 da 58 00 00       	callq  e6b0 <_Z12solveScalers6VectorS_S_S_>
    8dd6:	48 8b 85 e8 fe ff ff 	mov    -0x118(%rbp),%rax
    8ddd:	f2 0f 10 45 a0       	movsd  -0x60(%rbp),%xmm0
    8de2:	f2 0f 59 45 a0       	mulsd  -0x60(%rbp),%xmm0
    8de7:	f2 0f 10 48 70       	movsd  0x70(%rax),%xmm1
    8dec:	f2 0f 59 48 70       	mulsd  0x70(%rax),%xmm1
    8df1:	f2 0f 5e c1          	divsd  %xmm1,%xmm0
    8df5:	f2 0f 10 4d a8       	movsd  -0x58(%rbp),%xmm1
    8dfa:	f2 0f 59 4d a8       	mulsd  -0x58(%rbp),%xmm1
    8dff:	f2 0f 10 50 78       	movsd  0x78(%rax),%xmm2
    8e04:	f2 0f 59 50 78       	mulsd  0x78(%rax),%xmm2
    8e09:	f2 0f 5e ca          	divsd  %xmm2,%xmm1
    8e0d:	f2 0f 58 c1          	addsd  %xmm1,%xmm0
    8e11:	f2 0f 10 0d 2f 8b ff 	movsd  -0x74d1(%rip),%xmm1        # 1948 <_IO_stdin_used+0x48>
    8e18:	ff 
    8e19:	66 0f 2e c1          	ucomisd %xmm1,%xmm0
    8e1d:	0f 86 12 00 00 00    	jbe    8e35 <_ZN4Disk15getIntersectionE3Ray+0x2a5>
    8e23:	e8 78 f4 ff ff       	callq  82a0 <_ZNSt14numeric_limitsIdE8infinityEv>
    8e28:	f2 0f 11 85 d8 fe ff 	movsd  %xmm0,-0x128(%rbp)
    8e2f:	ff 
    8e30:	e9 0d 00 00 00       	jmpq   8e42 <_ZN4Disk15getIntersectionE3Ray+0x2b2>
    8e35:	f2 0f 10 45 e8       	movsd  -0x18(%rbp),%xmm0
    8e3a:	f2 0f 11 85 d8 fe ff 	movsd  %xmm0,-0x128(%rbp)
    8e41:	ff 
    8e42:	f2 0f 10 85 d8 fe ff 	movsd  -0x128(%rbp),%xmm0
    8e49:	ff 
    8e4a:	f2 0f 11 45 f8       	movsd  %xmm0,-0x8(%rbp)
    8e4f:	f2 0f 10 45 f8       	movsd  -0x8(%rbp),%xmm0
    8e54:	48 81 c4 90 01 00 00 	add    $0x190,%rsp
    8e5b:	5d                   	pop    %rbp
    8e5c:	c3                   	retq   
    8e5d:	0f 1f 00             	nopl   (%rax)

0000000000008e60 <_ZN4Disk20getLightIntersectionE3RayPd>:
    8e60:	55                   	push   %rbp
    8e61:	48 89 e5             	mov    %rsp,%rbp
    8e64:	48 81 ec d0 01 00 00 	sub    $0x1d0,%rsp
    8e6b:	48 89 f8             	mov    %rdi,%rax
    8e6e:	48 8d 7d 10          	lea    0x10(%rbp),%rdi
    8e72:	48 89 bd b0 fe ff ff 	mov    %rdi,-0x150(%rbp)
    8e79:	48 89 45 f0          	mov    %rax,-0x10(%rbp)
    8e7d:	48 89 75 e8          	mov    %rsi,-0x18(%rbp)
    8e81:	48 8b 45 f0          	mov    -0x10(%rbp),%rax
    8e85:	48 89 85 b8 fe ff ff 	mov    %rax,-0x148(%rbp)
    8e8c:	48 83 c7 18          	add    $0x18,%rdi
    8e90:	48 8b 88 a8 00 00 00 	mov    0xa8(%rax),%rcx
    8e97:	48 89 4d c8          	mov    %rcx,-0x38(%rbp)
    8e9b:	48 8b 88 b0 00 00 00 	mov    0xb0(%rax),%rcx
    8ea2:	48 89 4d d0          	mov    %rcx,-0x30(%rbp)
    8ea6:	48 8b 80 b8 00 00 00 	mov    0xb8(%rax),%rax
    8ead:	48 89 45 d8          	mov    %rax,-0x28(%rbp)
    8eb1:	48 8d 45 c8          	lea    -0x38(%rbp),%rax
    8eb5:	48 8b 08             	mov    (%rax),%rcx
    8eb8:	48 89 0c 24          	mov    %rcx,(%rsp)
    8ebc:	48 8b 48 08          	mov    0x8(%rax),%rcx
    8ec0:	48 89 4c 24 08       	mov    %rcx,0x8(%rsp)
    8ec5:	48 8b 40 10          	mov    0x10(%rax),%rax
    8ec9:	48 89 44 24 10       	mov    %rax,0x10(%rsp)
    8ece:	e8 3d 57 00 00       	callq  e610 <_ZN6Vector3dotES_>
    8ed3:	48 8b 85 b0 fe ff ff 	mov    -0x150(%rbp),%rax
    8eda:	48 8b bd b8 fe ff ff 	mov    -0x148(%rbp),%rdi
    8ee1:	f2 0f 11 45 e0       	movsd  %xmm0,-0x20(%rbp)
    8ee6:	48 81 c7 a8 00 00 00 	add    $0xa8,%rdi
    8eed:	48 8b 08             	mov    (%rax),%rcx
    8ef0:	48 89 4d a8          	mov    %rcx,-0x58(%rbp)
    8ef4:	48 8b 48 08          	mov    0x8(%rax),%rcx
    8ef8:	48 89 4d b0          	mov    %rcx,-0x50(%rbp)
    8efc:	48 8b 40 10          	mov    0x10(%rax),%rax
    8f00:	48 89 45 b8          	mov    %rax,-0x48(%rbp)
    8f04:	48 8d 45 a8          	lea    -0x58(%rbp),%rax
    8f08:	48 8b 08             	mov    (%rax),%rcx
    8f0b:	48 89 0c 24          	mov    %rcx,(%rsp)
    8f0f:	48 8b 48 08          	mov    0x8(%rax),%rcx
    8f13:	48 89 4c 24 08       	mov    %rcx,0x8(%rsp)
    8f18:	48 8b 40 10          	mov    0x10(%rax),%rax
    8f1c:	48 89 44 24 10       	mov    %rax,0x10(%rsp)
    8f21:	e8 ea 56 00 00       	callq  e610 <_ZN6Vector3dotES_>
    8f26:	48 8b 85 b8 fe ff ff 	mov    -0x148(%rbp),%rax
    8f2d:	f2 0f 58 80 f0 00 00 	addsd  0xf0(%rax),%xmm0
    8f34:	00 
    8f35:	f2 0f 11 45 c0       	movsd  %xmm0,-0x40(%rbp)
    8f3a:	f2 0f 10 45 c0       	movsd  -0x40(%rbp),%xmm0
    8f3f:	66 48 0f 7e c0       	movq   %xmm0,%rax
    8f44:	48 b9 00 00 00 00 00 	movabs $0x8000000000000000,%rcx
    8f4b:	00 00 80 
    8f4e:	48 31 c8             	xor    %rcx,%rax
    8f51:	66 48 0f 6e c0       	movq   %rax,%xmm0
    8f56:	f2 0f 5e 45 e0       	divsd  -0x20(%rbp),%xmm0
    8f5b:	f2 0f 11 45 a0       	movsd  %xmm0,-0x60(%rbp)
    8f60:	0f 57 c0             	xorps  %xmm0,%xmm0
    8f63:	66 0f 2e 45 a0       	ucomisd -0x60(%rbp),%xmm0
    8f68:	0f 83 17 00 00 00    	jae    8f85 <_ZN4Disk20getLightIntersectionE3RayPd+0x125>
    8f6e:	f2 0f 10 45 a0       	movsd  -0x60(%rbp),%xmm0
    8f73:	f2 0f 10 0d cd 89 ff 	movsd  -0x7633(%rip),%xmm1        # 1948 <_IO_stdin_used+0x48>
    8f7a:	ff 
    8f7b:	66 0f 2e c1          	ucomisd %xmm1,%xmm0
    8f7f:	0f 82 09 00 00 00    	jb     8f8e <_ZN4Disk20getLightIntersectionE3RayPd+0x12e>
    8f85:	c6 45 ff 00          	movb   $0x0,-0x1(%rbp)
    8f89:	e9 65 03 00 00       	jmpq   92f3 <_ZN4Disk20getLightIntersectionE3RayPd+0x493>
    8f8e:	48 8b 85 b8 fe ff ff 	mov    -0x148(%rbp),%rax
    8f95:	48 8b b5 b0 fe ff ff 	mov    -0x150(%rbp),%rsi
    8f9c:	48 8b 88 c0 00 00 00 	mov    0xc0(%rax),%rcx
    8fa3:	48 89 8d 70 ff ff ff 	mov    %rcx,-0x90(%rbp)
    8faa:	48 8b 88 c8 00 00 00 	mov    0xc8(%rax),%rcx
    8fb1:	48 89 8d 78 ff ff ff 	mov    %rcx,-0x88(%rbp)
    8fb8:	48 8b 88 d0 00 00 00 	mov    0xd0(%rax),%rcx
    8fbf:	48 89 4d 80          	mov    %rcx,-0x80(%rbp)
    8fc3:	48 8b 88 d8 00 00 00 	mov    0xd8(%rax),%rcx
    8fca:	48 89 8d 58 ff ff ff 	mov    %rcx,-0xa8(%rbp)
    8fd1:	48 8b 88 e0 00 00 00 	mov    0xe0(%rax),%rcx
    8fd8:	48 89 8d 60 ff ff ff 	mov    %rcx,-0xa0(%rbp)
    8fdf:	48 8b 88 e8 00 00 00 	mov    0xe8(%rax),%rcx
    8fe6:	48 89 8d 68 ff ff ff 	mov    %rcx,-0x98(%rbp)
    8fed:	48 8b 88 a8 00 00 00 	mov    0xa8(%rax),%rcx
    8ff4:	48 89 8d 40 ff ff ff 	mov    %rcx,-0xc0(%rbp)
    8ffb:	48 8b 88 b0 00 00 00 	mov    0xb0(%rax),%rcx
    9002:	48 89 8d 48 ff ff ff 	mov    %rcx,-0xb8(%rbp)
    9009:	48 8b 80 b8 00 00 00 	mov    0xb8(%rax),%rax
    9010:	48 89 85 50 ff ff ff 	mov    %rax,-0xb0(%rbp)
    9017:	48 83 c6 18          	add    $0x18,%rsi
    901b:	f2 0f 10 45 a0       	movsd  -0x60(%rbp),%xmm0
    9020:	48 8d bd f8 fe ff ff 	lea    -0x108(%rbp),%rdi
    9027:	e8 74 52 00 00       	callq  e2a0 <_ZN6VectormlEd>
    902c:	48 8b b5 b0 fe ff ff 	mov    -0x150(%rbp),%rsi
    9033:	48 8d bd 10 ff ff ff 	lea    -0xf0(%rbp),%rdi
    903a:	48 8d 85 f8 fe ff ff 	lea    -0x108(%rbp),%rax
    9041:	48 8b 08             	mov    (%rax),%rcx
    9044:	48 89 0c 24          	mov    %rcx,(%rsp)
    9048:	48 8b 48 08          	mov    0x8(%rax),%rcx
    904c:	48 89 4c 24 08       	mov    %rcx,0x8(%rsp)
    9051:	48 8b 40 10          	mov    0x10(%rax),%rax
    9055:	48 89 44 24 10       	mov    %rax,0x10(%rsp)
    905a:	e8 f1 51 00 00       	callq  e250 <_ZN6VectorplES_>
    905f:	48 8b 85 b8 fe ff ff 	mov    -0x148(%rbp),%rax
    9066:	48 8b 48 50          	mov    0x50(%rax),%rcx
    906a:	48 89 8d e0 fe ff ff 	mov    %rcx,-0x120(%rbp)
    9071:	48 8b 48 58          	mov    0x58(%rax),%rcx
    9075:	48 89 8d e8 fe ff ff 	mov    %rcx,-0x118(%rbp)
    907c:	48 8b 40 60          	mov    0x60(%rax),%rax
    9080:	48 89 85 f0 fe ff ff 	mov    %rax,-0x110(%rbp)
    9087:	48 8d bd 28 ff ff ff 	lea    -0xd8(%rbp),%rdi
    908e:	48 8d b5 10 ff ff ff 	lea    -0xf0(%rbp),%rsi
    9095:	48 8d 85 e0 fe ff ff 	lea    -0x120(%rbp),%rax
    909c:	48 8b 08             	mov    (%rax),%rcx
    909f:	48 89 0c 24          	mov    %rcx,(%rsp)
    90a3:	48 8b 48 08          	mov    0x8(%rax),%rcx
    90a7:	48 89 4c 24 08       	mov    %rcx,0x8(%rsp)
    90ac:	48 8b 40 10          	mov    0x10(%rax),%rax
    90b0:	48 89 44 24 10       	mov    %rax,0x10(%rsp)
    90b5:	e8 46 51 00 00       	callq  e200 <_ZN6VectormiES_>
    90ba:	48 8d 7d 88          	lea    -0x78(%rbp),%rdi
    90be:	48 8d b5 70 ff ff ff 	lea    -0x90(%rbp),%rsi
    90c5:	48 8d 95 58 ff ff ff 	lea    -0xa8(%rbp),%rdx
    90cc:	48 8d 8d 40 ff ff ff 	lea    -0xc0(%rbp),%rcx
    90d3:	48 8d 85 28 ff ff ff 	lea    -0xd8(%rbp),%rax
    90da:	4c 8b 06             	mov    (%rsi),%r8
    90dd:	4c 89 04 24          	mov    %r8,(%rsp)
    90e1:	4c 8b 46 08          	mov    0x8(%rsi),%r8
    90e5:	4c 89 44 24 08       	mov    %r8,0x8(%rsp)
    90ea:	48 8b 76 10          	mov    0x10(%rsi),%rsi
    90ee:	48 89 74 24 10       	mov    %rsi,0x10(%rsp)
    90f3:	48 8b 32             	mov    (%rdx),%rsi
    90f6:	48 89 74 24 18       	mov    %rsi,0x18(%rsp)
    90fb:	48 8b 72 08          	mov    0x8(%rdx),%rsi
    90ff:	48 89 74 24 20       	mov    %rsi,0x20(%rsp)
    9104:	48 8b 52 10          	mov    0x10(%rdx),%rdx
    9108:	48 89 54 24 28       	mov    %rdx,0x28(%rsp)
    910d:	48 8b 11             	mov    (%rcx),%rdx
    9110:	48 89 54 24 30       	mov    %rdx,0x30(%rsp)
    9115:	48 8b 51 08          	mov    0x8(%rcx),%rdx
    9119:	48 89 54 24 38       	mov    %rdx,0x38(%rsp)
    911e:	48 8b 49 10          	mov    0x10(%rcx),%rcx
    9122:	48 89 4c 24 40       	mov    %rcx,0x40(%rsp)
    9127:	48 8b 08             	mov    (%rax),%rcx
    912a:	48 89 4c 24 48       	mov    %rcx,0x48(%rsp)
    912f:	48 8b 48 08          	mov    0x8(%rax),%rcx
    9133:	48 89 4c 24 50       	mov    %rcx,0x50(%rsp)
    9138:	48 8b 40 10          	mov    0x10(%rax),%rax
    913c:	48 89 44 24 58       	mov    %rax,0x58(%rsp)
    9141:	e8 6a 55 00 00       	callq  e6b0 <_Z12solveScalers6VectorS_S_S_>
    9146:	48 8b 85 b8 fe ff ff 	mov    -0x148(%rbp),%rax
    914d:	f2 0f 10 45 88       	movsd  -0x78(%rbp),%xmm0
    9152:	f2 0f 59 45 88       	mulsd  -0x78(%rbp),%xmm0
    9157:	f2 0f 10 48 70       	movsd  0x70(%rax),%xmm1
    915c:	f2 0f 59 48 70       	mulsd  0x70(%rax),%xmm1
    9161:	f2 0f 5e c1          	divsd  %xmm1,%xmm0
    9165:	f2 0f 10 4d 90       	movsd  -0x70(%rbp),%xmm1
    916a:	f2 0f 59 4d 90       	mulsd  -0x70(%rbp),%xmm1
    916f:	f2 0f 10 50 78       	movsd  0x78(%rax),%xmm2
    9174:	f2 0f 59 50 78       	mulsd  0x78(%rax),%xmm2
    9179:	f2 0f 5e ca          	divsd  %xmm2,%xmm1
    917d:	f2 0f 58 c1          	addsd  %xmm1,%xmm0
    9181:	f2 0f 10 0d bf 87 ff 	movsd  -0x7841(%rip),%xmm1        # 1948 <_IO_stdin_used+0x48>
    9188:	ff 
    9189:	66 0f 2e c1          	ucomisd %xmm1,%xmm0
    918d:	0f 86 09 00 00 00    	jbe    919c <_ZN4Disk20getLightIntersectionE3RayPd+0x33c>
    9193:	c6 45 ff 00          	movb   $0x0,-0x1(%rbp)
    9197:	e9 57 01 00 00       	jmpq   92f3 <_ZN4Disk20getLightIntersectionE3RayPd+0x493>
    919c:	48 8b 85 b8 fe ff ff 	mov    -0x148(%rbp),%rax
    91a3:	48 8b 40 68          	mov    0x68(%rax),%rax
    91a7:	f2 0f 10 40 08       	movsd  0x8(%rax),%xmm0
    91ac:	f2 0f 10 0d dc 87 ff 	movsd  -0x7824(%rip),%xmm1        # 1990 <_IO_stdin_used+0x90>
    91b3:	ff 
    91b4:	66 0f 2e c1          	ucomisd %xmm1,%xmm0
    91b8:	0f 86 09 00 00 00    	jbe    91c7 <_ZN4Disk20getLightIntersectionE3RayPd+0x367>
    91be:	c6 45 ff 01          	movb   $0x1,-0x1(%rbp)
    91c2:	e9 2c 01 00 00       	jmpq   92f3 <_ZN4Disk20getLightIntersectionE3RayPd+0x493>
    91c7:	48 8b 85 b8 fe ff ff 	mov    -0x148(%rbp),%rax
    91ce:	48 8b 48 68          	mov    0x68(%rax),%rcx
    91d2:	48 89 8d 98 fe ff ff 	mov    %rcx,-0x168(%rbp)
    91d9:	48 8d 8d dc fe ff ff 	lea    -0x124(%rbp),%rcx
    91e0:	48 89 8d a0 fe ff ff 	mov    %rcx,-0x160(%rbp)
    91e7:	f2 0f 10 45 88       	movsd  -0x78(%rbp),%xmm0
    91ec:	f2 0f 5e 40 70       	divsd  0x70(%rax),%xmm0
    91f1:	f2 0f 10 0d 77 87 ff 	movsd  -0x7889(%rip),%xmm1        # 1970 <_IO_stdin_used+0x70>
    91f8:	ff 
    91f9:	f2 0f 5c c1          	subsd  %xmm1,%xmm0
    91fd:	e8 de 67 00 00       	callq  f9e0 <_Z3fixd>
    9202:	48 8b 85 b8 fe ff ff 	mov    -0x148(%rbp),%rax
    9209:	f2 0f 11 85 a8 fe ff 	movsd  %xmm0,-0x158(%rbp)
    9210:	ff 
    9211:	f2 0f 10 45 90       	movsd  -0x70(%rbp),%xmm0
    9216:	f2 0f 5e 40 78       	divsd  0x78(%rax),%xmm0
    921b:	f2 0f 10 0d 4d 87 ff 	movsd  -0x78b3(%rip),%xmm1        # 1970 <_IO_stdin_used+0x70>
    9222:	ff 
    9223:	f2 0f 5c c1          	subsd  %xmm1,%xmm0
    9227:	e8 b4 67 00 00       	callq  f9e0 <_Z3fixd>
    922c:	48 8b bd 98 fe ff ff 	mov    -0x168(%rbp),%rdi
    9233:	48 8b b5 a0 fe ff ff 	mov    -0x160(%rbp),%rsi
    923a:	0f 28 c8             	movaps %xmm0,%xmm1
    923d:	f2 0f 10 85 a8 fe ff 	movsd  -0x158(%rbp),%xmm0
    9244:	ff 
    9245:	48 8b 07             	mov    (%rdi),%rax
    9248:	48 8d 95 d0 fe ff ff 	lea    -0x130(%rbp),%rdx
    924f:	48 8d 8d c8 fe ff ff 	lea    -0x138(%rbp),%rcx
    9256:	4c 8d 85 c0 fe ff ff 	lea    -0x140(%rbp),%r8
    925d:	ff 10                	callq  *(%rax)
    925f:	f2 0f 10 85 c8 fe ff 	movsd  -0x138(%rbp),%xmm0
    9266:	ff 
    9267:	f2 0f 10 0d 21 87 ff 	movsd  -0x78df(%rip),%xmm1        # 1990 <_IO_stdin_used+0x90>
    926e:	ff 
    926f:	66 0f 2e c1          	ucomisd %xmm1,%xmm0
    9273:	0f 86 09 00 00 00    	jbe    9282 <_ZN4Disk20getLightIntersectionE3RayPd+0x422>
    9279:	c6 45 ff 01          	movb   $0x1,-0x1(%rbp)
    927d:	e9 71 00 00 00       	jmpq   92f3 <_ZN4Disk20getLightIntersectionE3RayPd+0x493>
    9282:	0f b6 85 dc fe ff ff 	movzbl -0x124(%rbp),%eax
    9289:	f2 0f 2a c0          	cvtsi2sd %eax,%xmm0
    928d:	f2 0f 10 0d 7b 86 ff 	movsd  -0x7985(%rip),%xmm1        # 1910 <_IO_stdin_used+0x10>
    9294:	ff 
    9295:	f2 0f 5e c1          	divsd  %xmm1,%xmm0
    9299:	48 8b 45 e8          	mov    -0x18(%rbp),%rax
    929d:	f2 0f 59 00          	mulsd  (%rax),%xmm0
    92a1:	f2 0f 11 00          	movsd  %xmm0,(%rax)
    92a5:	0f b6 85 dd fe ff ff 	movzbl -0x123(%rbp),%eax
    92ac:	f2 0f 2a c0          	cvtsi2sd %eax,%xmm0
    92b0:	f2 0f 10 0d 58 86 ff 	movsd  -0x79a8(%rip),%xmm1        # 1910 <_IO_stdin_used+0x10>
    92b7:	ff 
    92b8:	f2 0f 5e c1          	divsd  %xmm1,%xmm0
    92bc:	48 8b 45 e8          	mov    -0x18(%rbp),%rax
    92c0:	f2 0f 59 40 08       	mulsd  0x8(%rax),%xmm0
    92c5:	f2 0f 11 40 08       	movsd  %xmm0,0x8(%rax)
    92ca:	0f b6 85 de fe ff ff 	movzbl -0x122(%rbp),%eax
    92d1:	f2 0f 2a c0          	cvtsi2sd %eax,%xmm0
    92d5:	f2 0f 10 0d 33 86 ff 	movsd  -0x79cd(%rip),%xmm1        # 1910 <_IO_stdin_used+0x10>
    92dc:	ff 
    92dd:	f2 0f 5e c1          	divsd  %xmm1,%xmm0
    92e1:	48 8b 45 e8          	mov    -0x18(%rbp),%rax
    92e5:	f2 0f 59 40 10       	mulsd  0x10(%rax),%xmm0
    92ea:	f2 0f 11 40 10       	movsd  %xmm0,0x10(%rax)
    92ef:	c6 45 ff 00          	movb   $0x0,-0x1(%rbp)
    92f3:	8a 45 ff             	mov    -0x1(%rbp),%al
    92f6:	24 01                	and    $0x1,%al
    92f8:	0f b6 c0             	movzbl %al,%eax
    92fb:	48 81 c4 d0 01 00 00 	add    $0x1d0,%rsp
    9302:	5d                   	pop    %rbp
    9303:	c3                   	retq   
    9304:	cc                   	int3   
    9305:	cc                   	int3   
    9306:	cc                   	int3   
    9307:	cc                   	int3   
    9308:	cc                   	int3   
    9309:	cc                   	int3   
    930a:	cc                   	int3   
    930b:	cc                   	int3   
    930c:	cc                   	int3   
    930d:	cc                   	int3   
    930e:	cc                   	int3   
    930f:	cc                   	int3   

0000000000009310 <_ZN5LightC1ERK6VectorPh>:
    9310:	55                   	push   %rbp
    9311:	48 89 e5             	mov    %rsp,%rbp
    9314:	48 89 7d f8          	mov    %rdi,-0x8(%rbp)
    9318:	48 89 75 f0          	mov    %rsi,-0x10(%rbp)
    931c:	48 89 55 e8          	mov    %rdx,-0x18(%rbp)
    9320:	48 8b 45 f8          	mov    -0x8(%rbp),%rax
    9324:	48 8b 4d f0          	mov    -0x10(%rbp),%rcx
    9328:	48 8b 11             	mov    (%rcx),%rdx
    932b:	48 89 50 08          	mov    %rdx,0x8(%rax)
    932f:	48 8b 51 08          	mov    0x8(%rcx),%rdx
    9333:	48 89 50 10          	mov    %rdx,0x10(%rax)
    9337:	48 8b 49 10          	mov    0x10(%rcx),%rcx
    933b:	48 89 48 18          	mov    %rcx,0x18(%rax)
    933f:	48 8b 4d e8          	mov    -0x18(%rbp),%rcx
    9343:	48 89 08             	mov    %rcx,(%rax)
    9346:	5d                   	pop    %rbp
    9347:	c3                   	retq   
    9348:	0f 1f 84 00 00 00 00 	nopl   0x0(%rax,%rax,1)
    934f:	00 

0000000000009350 <_ZN5Light8getColorEhhh>:
    9350:	55                   	push   %rbp
    9351:	48 89 e5             	mov    %rsp,%rbp
    9354:	48 83 ec 20          	sub    $0x20,%rsp
    9358:	88 c8                	mov    %cl,%al
    935a:	88 d1                	mov    %dl,%cl
    935c:	40 88 f2             	mov    %sil,%dl
    935f:	48 89 7d f8          	mov    %rdi,-0x8(%rbp)
    9363:	88 55 f7             	mov    %dl,-0x9(%rbp)
    9366:	88 4d f6             	mov    %cl,-0xa(%rbp)
    9369:	88 45 f5             	mov    %al,-0xb(%rbp)
    936c:	bf 03 00 00 00       	mov    $0x3,%edi
    9371:	e8 aa 68 00 00       	callq  fc20 <malloc@plt>
    9376:	48 89 45 e8          	mov    %rax,-0x18(%rbp)
    937a:	8a 4d f7             	mov    -0x9(%rbp),%cl
    937d:	48 8b 45 e8          	mov    -0x18(%rbp),%rax
    9381:	88 08                	mov    %cl,(%rax)
    9383:	8a 4d f6             	mov    -0xa(%rbp),%cl
    9386:	48 8b 45 e8          	mov    -0x18(%rbp),%rax
    938a:	88 48 01             	mov    %cl,0x1(%rax)
    938d:	8a 4d f5             	mov    -0xb(%rbp),%cl
    9390:	48 8b 45 e8          	mov    -0x18(%rbp),%rax
    9394:	88 48 02             	mov    %cl,0x2(%rax)
    9397:	48 8b 45 e8          	mov    -0x18(%rbp),%rax
    939b:	48 83 c4 20          	add    $0x20,%rsp
    939f:	5d                   	pop    %rbp
    93a0:	c3                   	retq   
    93a1:	66 66 66 66 66 66 2e 	data16 data16 data16 data16 data16 nopw %cs:0x0(%rax,%rax,1)
    93a8:	0f 1f 84 00 00 00 00 
    93af:	00 

00000000000093b0 <_ZN8AutonomaC1ERK6Camera>:
    93b0:	55                   	push   %rbp
    93b1:	48 89 e5             	mov    %rsp,%rbp
    93b4:	48 83 ec 30          	sub    $0x30,%rsp
    93b8:	48 89 7d f8          	mov    %rdi,-0x8(%rbp)
    93bc:	48 89 75 f0          	mov    %rsi,-0x10(%rbp)
    93c0:	48 8b 7d f8          	mov    -0x8(%rbp),%rdi
    93c4:	48 89 7d d0          	mov    %rdi,-0x30(%rbp)
    93c8:	48 8b 75 f0          	mov    -0x10(%rbp),%rsi
    93cc:	ba a8 00 00 00       	mov    $0xa8,%edx
    93d1:	e8 ea 69 00 00       	callq  fdc0 <memcpy@plt>
    93d6:	48 8b 45 d0          	mov    -0x30(%rbp),%rax
    93da:	48 c7 80 b8 00 00 00 	movq   $0x0,0xb8(%rax)
    93e1:	00 00 00 00 
    93e5:	48 c7 80 c0 00 00 00 	movq   $0x0,0xc0(%rax)
    93ec:	00 00 00 00 
    93f0:	48 c7 80 c8 00 00 00 	movq   $0x0,0xc8(%rax)
    93f7:	00 00 00 00 
    93fb:	48 c7 80 d0 00 00 00 	movq   $0x0,0xd0(%rax)
    9402:	00 00 00 00 
    9406:	c7 80 b0 00 00 00 0a 	movl   $0xa,0xb0(%rax)
    940d:	00 00 00 
    9410:	bf 28 00 00 00       	mov    $0x28,%edi
    9415:	e8 d6 68 00 00       	callq  fcf0 <_Znwm@plt>
    941a:	48 89 c7             	mov    %rax,%rdi
    941d:	48 89 f8             	mov    %rdi,%rax
    9420:	48 89 45 d8          	mov    %rax,-0x28(%rbp)
    9424:	31 c9                	xor    %ecx,%ecx
    9426:	89 ce                	mov    %ecx,%esi
    9428:	89 ca                	mov    %ecx,%edx
    942a:	e8 41 56 00 00       	callq  ea70 <_ZN12ColorTextureC1Ehhh>
    942f:	e9 00 00 00 00       	jmpq   9434 <_ZN8AutonomaC1ERK6Camera+0x84>
    9434:	48 8b 45 d0          	mov    -0x30(%rbp),%rax
    9438:	48 8b 4d d8          	mov    -0x28(%rbp),%rcx
    943c:	48 89 88 a8 00 00 00 	mov    %rcx,0xa8(%rax)
    9443:	48 83 c4 30          	add    $0x30,%rsp
    9447:	5d                   	pop    %rbp
    9448:	c3                   	retq   
    9449:	48 8b 7d d8          	mov    -0x28(%rbp),%rdi
    944d:	48 89 c1             	mov    %rax,%rcx
    9450:	89 d0                	mov    %edx,%eax
    9452:	48 89 4d e8          	mov    %rcx,-0x18(%rbp)
    9456:	89 45 e4             	mov    %eax,-0x1c(%rbp)
    9459:	e8 b2 68 00 00       	callq  fd10 <_ZdlPv@plt>
    945e:	48 8b 7d e8          	mov    -0x18(%rbp),%rdi
    9462:	e8 b9 68 00 00       	callq  fd20 <_Unwind_Resume@plt>
    9467:	66 0f 1f 84 00 00 00 	nopw   0x0(%rax,%rax,1)
    946e:	00 00 

0000000000009470 <_ZN8AutonomaC1ERK6CameraP7Texture>:
    9470:	55                   	push   %rbp
    9471:	48 89 e5             	mov    %rsp,%rbp
    9474:	48 83 ec 20          	sub    $0x20,%rsp
    9478:	48 89 7d f8          	mov    %rdi,-0x8(%rbp)
    947c:	48 89 75 f0          	mov    %rsi,-0x10(%rbp)
    9480:	48 89 55 e8          	mov    %rdx,-0x18(%rbp)
    9484:	48 8b 7d f8          	mov    -0x8(%rbp),%rdi
    9488:	48 89 7d e0          	mov    %rdi,-0x20(%rbp)
    948c:	48 8b 75 f0          	mov    -0x10(%rbp),%rsi
    9490:	ba a8 00 00 00       	mov    $0xa8,%edx
    9495:	e8 26 69 00 00       	callq  fdc0 <memcpy@plt>
    949a:	48 8b 45 e0          	mov    -0x20(%rbp),%rax
    949e:	48 c7 80 b8 00 00 00 	movq   $0x0,0xb8(%rax)
    94a5:	00 00 00 00 
    94a9:	48 c7 80 c0 00 00 00 	movq   $0x0,0xc0(%rax)
    94b0:	00 00 00 00 
    94b4:	48 c7 80 c8 00 00 00 	movq   $0x0,0xc8(%rax)
    94bb:	00 00 00 00 
    94bf:	48 c7 80 d0 00 00 00 	movq   $0x0,0xd0(%rax)
    94c6:	00 00 00 00 
    94ca:	c7 80 b0 00 00 00 0a 	movl   $0xa,0xb0(%rax)
    94d1:	00 00 00 
    94d4:	48 8b 4d e8          	mov    -0x18(%rbp),%rcx
    94d8:	48 89 88 a8 00 00 00 	mov    %rcx,0xa8(%rax)
    94df:	48 83 c4 20          	add    $0x20,%rsp
    94e3:	5d                   	pop    %rbp
    94e4:	c3                   	retq   
    94e5:	66 66 2e 0f 1f 84 00 	data16 nopw %cs:0x0(%rax,%rax,1)
    94ec:	00 00 00 00 

00000000000094f0 <_ZN8Autonoma8addShapeEP5Shape>:
    94f0:	55                   	push   %rbp
    94f1:	48 89 e5             	mov    %rsp,%rbp
    94f4:	48 83 ec 20          	sub    $0x20,%rsp
    94f8:	48 89 7d f8          	mov    %rdi,-0x8(%rbp)
    94fc:	48 89 75 f0          	mov    %rsi,-0x10(%rbp)
    9500:	48 8b 45 f8          	mov    -0x8(%rbp),%rax
    9504:	48 89 45 e0          	mov    %rax,-0x20(%rbp)
    9508:	bf 18 00 00 00       	mov    $0x18,%edi
    950d:	e8 0e 67 00 00       	callq  fc20 <malloc@plt>
    9512:	48 89 c1             	mov    %rax,%rcx
    9515:	48 8b 45 e0          	mov    -0x20(%rbp),%rax
    9519:	48 89 4d e8          	mov    %rcx,-0x18(%rbp)
    951d:	48 8b 55 f0          	mov    -0x10(%rbp),%rdx
    9521:	48 8b 4d e8          	mov    -0x18(%rbp),%rcx
    9525:	48 89 11             	mov    %rdx,(%rcx)
    9528:	48 8b 4d e8          	mov    -0x18(%rbp),%rcx
    952c:	48 c7 41 08 00 00 00 	movq   $0x0,0x8(%rcx)
    9533:	00 
    9534:	48 8b 4d e8          	mov    -0x18(%rbp),%rcx
    9538:	48 c7 41 10 00 00 00 	movq   $0x0,0x10(%rcx)
    953f:	00 
    9540:	48 83 b8 b8 00 00 00 	cmpq   $0x0,0xb8(%rax)
    9547:	00 
    9548:	0f 85 1b 00 00 00    	jne    9569 <_ZN8Autonoma8addShapeEP5Shape+0x79>
    954e:	48 8b 45 e0          	mov    -0x20(%rbp),%rax
    9552:	48 8b 4d e8          	mov    -0x18(%rbp),%rcx
    9556:	48 89 88 c0 00 00 00 	mov    %rcx,0xc0(%rax)
    955d:	48 89 88 b8 00 00 00 	mov    %rcx,0xb8(%rax)
    9564:	e9 2d 00 00 00       	jmpq   9596 <_ZN8Autonoma8addShapeEP5Shape+0xa6>
    9569:	48 8b 45 e0          	mov    -0x20(%rbp),%rax
    956d:	48 8b 55 e8          	mov    -0x18(%rbp),%rdx
    9571:	48 8b 88 c0 00 00 00 	mov    0xc0(%rax),%rcx
    9578:	48 89 51 10          	mov    %rdx,0x10(%rcx)
    957c:	48 8b 90 c0 00 00 00 	mov    0xc0(%rax),%rdx
    9583:	48 8b 4d e8          	mov    -0x18(%rbp),%rcx
    9587:	48 89 51 08          	mov    %rdx,0x8(%rcx)
    958b:	48 8b 4d e8          	mov    -0x18(%rbp),%rcx
    958f:	48 89 88 c0 00 00 00 	mov    %rcx,0xc0(%rax)
    9596:	48 83 c4 20          	add    $0x20,%rsp
    959a:	5d                   	pop    %rbp
    959b:	c3                   	retq   
    959c:	0f 1f 40 00          	nopl   0x0(%rax)

00000000000095a0 <_ZN8Autonoma11removeShapeEP9ShapeNode>:
    95a0:	55                   	push   %rbp
    95a1:	48 89 e5             	mov    %rsp,%rbp
    95a4:	48 83 ec 30          	sub    $0x30,%rsp
    95a8:	48 89 7d f8          	mov    %rdi,-0x8(%rbp)
    95ac:	48 89 75 f0          	mov    %rsi,-0x10(%rbp)
    95b0:	48 8b 4d f8          	mov    -0x8(%rbp),%rcx
    95b4:	48 89 4d d8          	mov    %rcx,-0x28(%rbp)
    95b8:	48 8b 45 f0          	mov    -0x10(%rbp),%rax
    95bc:	48 3b 81 b8 00 00 00 	cmp    0xb8(%rcx),%rax
    95c3:	0f 85 5b 00 00 00    	jne    9624 <_ZN8Autonoma11removeShapeEP9ShapeNode+0x84>
    95c9:	48 8b 4d d8          	mov    -0x28(%rbp),%rcx
    95cd:	48 8b 45 f0          	mov    -0x10(%rbp),%rax
    95d1:	48 3b 81 c0 00 00 00 	cmp    0xc0(%rcx),%rax
    95d8:	0f 85 1f 00 00 00    	jne    95fd <_ZN8Autonoma11removeShapeEP9ShapeNode+0x5d>
    95de:	48 8b 45 d8          	mov    -0x28(%rbp),%rax
    95e2:	48 c7 80 b8 00 00 00 	movq   $0x0,0xb8(%rax)
    95e9:	00 00 00 00 
    95ed:	48 c7 80 b8 00 00 00 	movq   $0x0,0xb8(%rax)
    95f4:	00 00 00 00 
    95f8:	e9 22 00 00 00       	jmpq   961f <_ZN8Autonoma11removeShapeEP9ShapeNode+0x7f>
    95fd:	48 8b 45 d8          	mov    -0x28(%rbp),%rax
    9601:	48 8b 4d f0          	mov    -0x10(%rbp),%rcx
    9605:	48 8b 49 10          	mov    0x10(%rcx),%rcx
    9609:	48 89 88 b8 00 00 00 	mov    %rcx,0xb8(%rax)
    9610:	48 8b 80 b8 00 00 00 	mov    0xb8(%rax),%rax
    9617:	48 c7 40 08 00 00 00 	movq   $0x0,0x8(%rax)
    961e:	00 
    961f:	e9 71 00 00 00       	jmpq   9695 <_ZN8Autonoma11removeShapeEP9ShapeNode+0xf5>
    9624:	48 8b 4d d8          	mov    -0x28(%rbp),%rcx
    9628:	48 8b 45 f0          	mov    -0x10(%rbp),%rax
    962c:	48 3b 81 c0 00 00 00 	cmp    0xc0(%rcx),%rax
    9633:	0f 85 27 00 00 00    	jne    9660 <_ZN8Autonoma11removeShapeEP9ShapeNode+0xc0>
    9639:	48 8b 45 d8          	mov    -0x28(%rbp),%rax
    963d:	48 8b 4d f0          	mov    -0x10(%rbp),%rcx
    9641:	48 8b 49 08          	mov    0x8(%rcx),%rcx
    9645:	48 89 88 c0 00 00 00 	mov    %rcx,0xc0(%rax)
    964c:	48 8b 80 c0 00 00 00 	mov    0xc0(%rax),%rax
    9653:	48 c7 40 10 00 00 00 	movq   $0x0,0x10(%rax)
    965a:	00 
    965b:	e9 30 00 00 00       	jmpq   9690 <_ZN8Autonoma11removeShapeEP9ShapeNode+0xf0>
    9660:	48 8b 45 f0          	mov    -0x10(%rbp),%rax
    9664:	48 8b 40 08          	mov    0x8(%rax),%rax
    9668:	48 89 45 e8          	mov    %rax,-0x18(%rbp)
    966c:	48 8b 45 f0          	mov    -0x10(%rbp),%rax
    9670:	48 8b 40 10          	mov    0x10(%rax),%rax
    9674:	48 89 45 e0          	mov    %rax,-0x20(%rbp)
    9678:	48 8b 4d e0          	mov    -0x20(%rbp),%rcx
    967c:	48 8b 45 e8          	mov    -0x18(%rbp),%rax
    9680:	48 89 48 10          	mov    %rcx,0x10(%rax)
    9684:	48 8b 4d e8          	mov    -0x18(%rbp),%rcx
    9688:	48 8b 45 e0          	mov    -0x20(%rbp),%rax
    968c:	48 89 48 08          	mov    %rcx,0x8(%rax)
    9690:	e9 00 00 00 00       	jmpq   9695 <_ZN8Autonoma11removeShapeEP9ShapeNode+0xf5>
    9695:	48 8b 7d f0          	mov    -0x10(%rbp),%rdi
    9699:	e8 32 67 00 00       	callq  fdd0 <free@plt>
    969e:	48 83 c4 30          	add    $0x30,%rsp
    96a2:	5d                   	pop    %rbp
    96a3:	c3                   	retq   
    96a4:	66 66 66 2e 0f 1f 84 	data16 data16 nopw %cs:0x0(%rax,%rax,1)
    96ab:	00 00 00 00 00 

00000000000096b0 <_ZN8Autonoma8addLightEP5Light>:
    96b0:	55                   	push   %rbp
    96b1:	48 89 e5             	mov    %rsp,%rbp
    96b4:	48 83 ec 20          	sub    $0x20,%rsp
    96b8:	48 89 7d f8          	mov    %rdi,-0x8(%rbp)
    96bc:	48 89 75 f0          	mov    %rsi,-0x10(%rbp)
    96c0:	48 8b 45 f8          	mov    -0x8(%rbp),%rax
    96c4:	48 89 45 e0          	mov    %rax,-0x20(%rbp)
    96c8:	bf 18 00 00 00       	mov    $0x18,%edi
    96cd:	e8 4e 65 00 00       	callq  fc20 <malloc@plt>
    96d2:	48 89 c1             	mov    %rax,%rcx
    96d5:	48 8b 45 e0          	mov    -0x20(%rbp),%rax
    96d9:	48 89 4d e8          	mov    %rcx,-0x18(%rbp)
    96dd:	48 8b 55 f0          	mov    -0x10(%rbp),%rdx
    96e1:	48 8b 4d e8          	mov    -0x18(%rbp),%rcx
    96e5:	48 89 11             	mov    %rdx,(%rcx)
    96e8:	48 8b 4d e8          	mov    -0x18(%rbp),%rcx
    96ec:	48 c7 41 08 00 00 00 	movq   $0x0,0x8(%rcx)
    96f3:	00 
    96f4:	48 8b 4d e8          	mov    -0x18(%rbp),%rcx
    96f8:	48 c7 41 10 00 00 00 	movq   $0x0,0x10(%rcx)
    96ff:	00 
    9700:	48 83 b8 c8 00 00 00 	cmpq   $0x0,0xc8(%rax)
    9707:	00 
    9708:	0f 85 1b 00 00 00    	jne    9729 <_ZN8Autonoma8addLightEP5Light+0x79>
    970e:	48 8b 45 e0          	mov    -0x20(%rbp),%rax
    9712:	48 8b 4d e8          	mov    -0x18(%rbp),%rcx
    9716:	48 89 88 d0 00 00 00 	mov    %rcx,0xd0(%rax)
    971d:	48 89 88 c8 00 00 00 	mov    %rcx,0xc8(%rax)
    9724:	e9 2d 00 00 00       	jmpq   9756 <_ZN8Autonoma8addLightEP5Light+0xa6>
    9729:	48 8b 45 e0          	mov    -0x20(%rbp),%rax
    972d:	48 8b 55 e8          	mov    -0x18(%rbp),%rdx
    9731:	48 8b 88 d0 00 00 00 	mov    0xd0(%rax),%rcx
    9738:	48 89 51 10          	mov    %rdx,0x10(%rcx)
    973c:	48 8b 90 d0 00 00 00 	mov    0xd0(%rax),%rdx
    9743:	48 8b 4d e8          	mov    -0x18(%rbp),%rcx
    9747:	48 89 51 08          	mov    %rdx,0x8(%rcx)
    974b:	48 8b 4d e8          	mov    -0x18(%rbp),%rcx
    974f:	48 89 88 d0 00 00 00 	mov    %rcx,0xd0(%rax)
    9756:	48 83 c4 20          	add    $0x20,%rsp
    975a:	5d                   	pop    %rbp
    975b:	c3                   	retq   
    975c:	0f 1f 40 00          	nopl   0x0(%rax)

0000000000009760 <_ZN8Autonoma11removeLightEP9LightNode>:
    9760:	55                   	push   %rbp
    9761:	48 89 e5             	mov    %rsp,%rbp
    9764:	48 83 ec 30          	sub    $0x30,%rsp
    9768:	48 89 7d f8          	mov    %rdi,-0x8(%rbp)
    976c:	48 89 75 f0          	mov    %rsi,-0x10(%rbp)
    9770:	48 8b 4d f8          	mov    -0x8(%rbp),%rcx
    9774:	48 89 4d d8          	mov    %rcx,-0x28(%rbp)
    9778:	48 8b 45 f0          	mov    -0x10(%rbp),%rax
    977c:	48 3b 81 c8 00 00 00 	cmp    0xc8(%rcx),%rax
    9783:	0f 85 5b 00 00 00    	jne    97e4 <_ZN8Autonoma11removeLightEP9LightNode+0x84>
    9789:	48 8b 4d d8          	mov    -0x28(%rbp),%rcx
    978d:	48 8b 45 f0          	mov    -0x10(%rbp),%rax
    9791:	48 3b 81 d0 00 00 00 	cmp    0xd0(%rcx),%rax
    9798:	0f 85 1f 00 00 00    	jne    97bd <_ZN8Autonoma11removeLightEP9LightNode+0x5d>
    979e:	48 8b 45 d8          	mov    -0x28(%rbp),%rax
    97a2:	48 c7 80 c8 00 00 00 	movq   $0x0,0xc8(%rax)
    97a9:	00 00 00 00 
    97ad:	48 c7 80 c8 00 00 00 	movq   $0x0,0xc8(%rax)
    97b4:	00 00 00 00 
    97b8:	e9 22 00 00 00       	jmpq   97df <_ZN8Autonoma11removeLightEP9LightNode+0x7f>
    97bd:	48 8b 45 d8          	mov    -0x28(%rbp),%rax
    97c1:	48 8b 4d f0          	mov    -0x10(%rbp),%rcx
    97c5:	48 8b 49 10          	mov    0x10(%rcx),%rcx
    97c9:	48 89 88 c8 00 00 00 	mov    %rcx,0xc8(%rax)
    97d0:	48 8b 80 c8 00 00 00 	mov    0xc8(%rax),%rax
    97d7:	48 c7 40 08 00 00 00 	movq   $0x0,0x8(%rax)
    97de:	00 
    97df:	e9 71 00 00 00       	jmpq   9855 <_ZN8Autonoma11removeLightEP9LightNode+0xf5>
    97e4:	48 8b 4d d8          	mov    -0x28(%rbp),%rcx
    97e8:	48 8b 45 f0          	mov    -0x10(%rbp),%rax
    97ec:	48 3b 81 d0 00 00 00 	cmp    0xd0(%rcx),%rax
    97f3:	0f 85 27 00 00 00    	jne    9820 <_ZN8Autonoma11removeLightEP9LightNode+0xc0>
    97f9:	48 8b 45 d8          	mov    -0x28(%rbp),%rax
    97fd:	48 8b 4d f0          	mov    -0x10(%rbp),%rcx
    9801:	48 8b 49 08          	mov    0x8(%rcx),%rcx
    9805:	48 89 88 d0 00 00 00 	mov    %rcx,0xd0(%rax)
    980c:	48 8b 80 d0 00 00 00 	mov    0xd0(%rax),%rax
    9813:	48 c7 40 10 00 00 00 	movq   $0x0,0x10(%rax)
    981a:	00 
    981b:	e9 30 00 00 00       	jmpq   9850 <_ZN8Autonoma11removeLightEP9LightNode+0xf0>
    9820:	48 8b 45 f0          	mov    -0x10(%rbp),%rax
    9824:	48 8b 40 08          	mov    0x8(%rax),%rax
    9828:	48 89 45 e8          	mov    %rax,-0x18(%rbp)
    982c:	48 8b 45 f0          	mov    -0x10(%rbp),%rax
    9830:	48 8b 40 10          	mov    0x10(%rax),%rax
    9834:	48 89 45 e0          	mov    %rax,-0x20(%rbp)
    9838:	48 8b 4d e0          	mov    -0x20(%rbp),%rcx
    983c:	48 8b 45 e8          	mov    -0x18(%rbp),%rax
    9840:	48 89 48 10          	mov    %rcx,0x10(%rax)
    9844:	48 8b 4d e8          	mov    -0x18(%rbp),%rcx
    9848:	48 8b 45 e0          	mov    -0x20(%rbp),%rax
    984c:	48 89 48 08          	mov    %rcx,0x8(%rax)
    9850:	e9 00 00 00 00       	jmpq   9855 <_ZN8Autonoma11removeLightEP9LightNode+0xf5>
    9855:	48 8b 7d f0          	mov    -0x10(%rbp),%rdi
    9859:	e8 72 65 00 00       	callq  fdd0 <free@plt>
    985e:	48 83 c4 30          	add    $0x30,%rsp
    9862:	5d                   	pop    %rbp
    9863:	c3                   	retq   
    9864:	66 66 66 2e 0f 1f 84 	data16 data16 nopw %cs:0x0(%rax,%rax,1)
    986b:	00 00 00 00 00 

0000000000009870 <_Z8getLightPdP8Autonoma6VectorS2_h>:
    9870:	55                   	push   %rbp
    9871:	48 89 e5             	mov    %rsp,%rbp
    9874:	48 81 ec 60 01 00 00 	sub    $0x160,%rsp
    987b:	88 d0                	mov    %dl,%al
    987d:	48 8d 4d 28          	lea    0x28(%rbp),%rcx
    9881:	48 89 8d f0 fe ff ff 	mov    %rcx,-0x110(%rbp)
    9888:	48 8d 4d 10          	lea    0x10(%rbp),%rcx
    988c:	48 89 8d f8 fe ff ff 	mov    %rcx,-0x108(%rbp)
    9893:	48 89 7d f8          	mov    %rdi,-0x8(%rbp)
    9897:	48 89 75 f0          	mov    %rsi,-0x10(%rbp)
    989b:	88 45 ef             	mov    %al,-0x11(%rbp)
    989e:	48 8b 45 f8          	mov    -0x8(%rbp),%rax
    98a2:	0f 57 c0             	xorps  %xmm0,%xmm0
    98a5:	f2 0f 11 40 10       	movsd  %xmm0,0x10(%rax)
    98aa:	48 8b 45 f8          	mov    -0x8(%rbp),%rax
    98ae:	0f 57 c0             	xorps  %xmm0,%xmm0
    98b1:	f2 0f 11 40 08       	movsd  %xmm0,0x8(%rax)
    98b6:	48 8b 45 f8          	mov    -0x8(%rbp),%rax
    98ba:	0f 57 c0             	xorps  %xmm0,%xmm0
    98bd:	f2 0f 11 00          	movsd  %xmm0,(%rax)
    98c1:	48 8b 45 f0          	mov    -0x10(%rbp),%rax
    98c5:	48 8b 80 c8 00 00 00 	mov    0xc8(%rax),%rax
    98cc:	48 89 45 e0          	mov    %rax,-0x20(%rbp)
    98d0:	48 83 7d e0 00       	cmpq   $0x0,-0x20(%rbp)
    98d5:	0f 84 b4 03 00 00    	je     9c8f <_Z8getLightPdP8Autonoma6VectorS2_h+0x41f>
    98db:	48 8b 85 f8 fe ff ff 	mov    -0x108(%rbp),%rax
    98e2:	48 8b 4d e0          	mov    -0x20(%rbp),%rcx
    98e6:	48 8b 09             	mov    (%rcx),%rcx
    98e9:	48 8b 09             	mov    (%rcx),%rcx
    98ec:	0f b6 09             	movzbl (%rcx),%ecx
    98ef:	f2 0f 2a c1          	cvtsi2sd %ecx,%xmm0
    98f3:	f2 0f 10 0d 15 80 ff 	movsd  -0x7feb(%rip),%xmm1        # 1910 <_IO_stdin_used+0x10>
    98fa:	ff 
    98fb:	f2 0f 5e c1          	divsd  %xmm1,%xmm0
    98ff:	f2 0f 11 45 c0       	movsd  %xmm0,-0x40(%rbp)
    9904:	48 8b 4d e0          	mov    -0x20(%rbp),%rcx
    9908:	48 8b 09             	mov    (%rcx),%rcx
    990b:	48 8b 09             	mov    (%rcx),%rcx
    990e:	0f b6 49 01          	movzbl 0x1(%rcx),%ecx
    9912:	f2 0f 2a c1          	cvtsi2sd %ecx,%xmm0
    9916:	f2 0f 10 0d f2 7f ff 	movsd  -0x800e(%rip),%xmm1        # 1910 <_IO_stdin_used+0x10>
    991d:	ff 
    991e:	f2 0f 5e c1          	divsd  %xmm1,%xmm0
    9922:	f2 0f 11 45 c8       	movsd  %xmm0,-0x38(%rbp)
    9927:	48 8b 4d e0          	mov    -0x20(%rbp),%rcx
    992b:	48 8b 09             	mov    (%rcx),%rcx
    992e:	48 8b 09             	mov    (%rcx),%rcx
    9931:	0f b6 49 02          	movzbl 0x2(%rcx),%ecx
    9935:	f2 0f 2a c1          	cvtsi2sd %ecx,%xmm0
    9939:	f2 0f 10 0d cf 7f ff 	movsd  -0x8031(%rip),%xmm1        # 1910 <_IO_stdin_used+0x10>
    9940:	ff 
    9941:	f2 0f 5e c1          	divsd  %xmm1,%xmm0
    9945:	f2 0f 11 45 d0       	movsd  %xmm0,-0x30(%rbp)
    994a:	48 8b 4d e0          	mov    -0x20(%rbp),%rcx
    994e:	48 8b 31             	mov    (%rcx),%rsi
    9951:	48 83 c6 08          	add    $0x8,%rsi
    9955:	48 8b 08             	mov    (%rax),%rcx
    9958:	48 89 4d 90          	mov    %rcx,-0x70(%rbp)
    995c:	48 8b 48 08          	mov    0x8(%rax),%rcx
    9960:	48 89 4d 98          	mov    %rcx,-0x68(%rbp)
    9964:	48 8b 40 10          	mov    0x10(%rax),%rax
    9968:	48 89 45 a0          	mov    %rax,-0x60(%rbp)
    996c:	48 8d 7d a8          	lea    -0x58(%rbp),%rdi
    9970:	48 8d 45 90          	lea    -0x70(%rbp),%rax
    9974:	48 8b 08             	mov    (%rax),%rcx
    9977:	48 89 0c 24          	mov    %rcx,(%rsp)
    997b:	48 8b 48 08          	mov    0x8(%rax),%rcx
    997f:	48 89 4c 24 08       	mov    %rcx,0x8(%rsp)
    9984:	48 8b 40 10          	mov    0x10(%rax),%rax
    9988:	48 89 44 24 10       	mov    %rax,0x10(%rsp)
    998d:	e8 6e 48 00 00       	callq  e200 <_ZN6VectormiES_>
    9992:	48 8b 45 f0          	mov    -0x10(%rbp),%rax
    9996:	48 8b 80 b8 00 00 00 	mov    0xb8(%rax),%rax
    999d:	48 89 45 88          	mov    %rax,-0x78(%rbp)
    99a1:	c6 45 87 00          	movb   $0x0,-0x79(%rbp)
    99a5:	31 c0                	xor    %eax,%eax
    99a7:	f6 45 87 01          	testb  $0x1,-0x79(%rbp)
    99ab:	88 85 ef fe ff ff    	mov    %al,-0x111(%rbp)
    99b1:	0f 85 0e 00 00 00    	jne    99c5 <_Z8getLightPdP8Autonoma6VectorS2_h+0x155>
    99b7:	48 83 7d 88 00       	cmpq   $0x0,-0x78(%rbp)
    99bc:	0f 95 c0             	setne  %al
    99bf:	88 85 ef fe ff ff    	mov    %al,-0x111(%rbp)
    99c5:	8a 85 ef fe ff ff    	mov    -0x111(%rbp),%al
    99cb:	a8 01                	test   $0x1,%al
    99cd:	0f 85 05 00 00 00    	jne    99d8 <_Z8getLightPdP8Autonoma6VectorS2_h+0x168>
    99d3:	e9 bd 00 00 00       	jmpq   9a95 <_Z8getLightPdP8Autonoma6VectorS2_h+0x225>
    99d8:	48 8b 45 88          	mov    -0x78(%rbp),%rax
    99dc:	48 8b 00             	mov    (%rax),%rax
    99df:	48 89 85 e0 fe ff ff 	mov    %rax,-0x120(%rbp)
    99e6:	48 8d bd 20 ff ff ff 	lea    -0xe0(%rbp),%rdi
    99ed:	48 8d 75 a8          	lea    -0x58(%rbp),%rsi
    99f1:	f2 0f 10 05 3f 7f ff 	movsd  -0x80c1(%rip),%xmm0        # 1938 <_IO_stdin_used+0x38>
    99f8:	ff 
    99f9:	e8 a2 48 00 00       	callq  e2a0 <_ZN6VectormlEd>
    99fe:	48 8b b5 f8 fe ff ff 	mov    -0x108(%rbp),%rsi
    9a05:	48 8d bd 38 ff ff ff 	lea    -0xc8(%rbp),%rdi
    9a0c:	48 8d 85 20 ff ff ff 	lea    -0xe0(%rbp),%rax
    9a13:	48 8b 08             	mov    (%rax),%rcx
    9a16:	48 89 0c 24          	mov    %rcx,(%rsp)
    9a1a:	48 8b 48 08          	mov    0x8(%rax),%rcx
    9a1e:	48 89 4c 24 08       	mov    %rcx,0x8(%rsp)
    9a23:	48 8b 40 10          	mov    0x10(%rax),%rax
    9a27:	48 89 44 24 10       	mov    %rax,0x10(%rsp)
    9a2c:	e8 1f 48 00 00       	callq  e250 <_ZN6VectorplES_>
    9a31:	48 8d bd 50 ff ff ff 	lea    -0xb0(%rbp),%rdi
    9a38:	48 8d b5 38 ff ff ff 	lea    -0xc8(%rbp),%rsi
    9a3f:	48 8d 55 a8          	lea    -0x58(%rbp),%rdx
    9a43:	e8 d8 4f 00 00       	callq  ea20 <_ZN3RayC1ERK6VectorS2_>
    9a48:	48 8b bd e0 fe ff ff 	mov    -0x120(%rbp),%rdi
    9a4f:	48 8d 75 c0          	lea    -0x40(%rbp),%rsi
    9a53:	48 8b 07             	mov    (%rdi),%rax
    9a56:	48 8b 40 08          	mov    0x8(%rax),%rax
    9a5a:	0f 10 85 50 ff ff ff 	movups -0xb0(%rbp),%xmm0
    9a61:	0f 10 8d 60 ff ff ff 	movups -0xa0(%rbp),%xmm1
    9a68:	0f 10 95 70 ff ff ff 	movups -0x90(%rbp),%xmm2
    9a6f:	48 89 e1             	mov    %rsp,%rcx
    9a72:	0f 11 51 20          	movups %xmm2,0x20(%rcx)
    9a76:	0f 11 49 10          	movups %xmm1,0x10(%rcx)
    9a7a:	0f 11 01             	movups %xmm0,(%rcx)
    9a7d:	ff d0                	callq  *%rax
    9a7f:	24 01                	and    $0x1,%al
    9a81:	88 45 87             	mov    %al,-0x79(%rbp)
    9a84:	48 8b 45 88          	mov    -0x78(%rbp),%rax
    9a88:	48 8b 40 10          	mov    0x10(%rax),%rax
    9a8c:	48 89 45 88          	mov    %rax,-0x78(%rbp)
    9a90:	e9 10 ff ff ff       	jmpq   99a5 <_Z8getLightPdP8Autonoma6VectorS2_h+0x135>
    9a95:	48 8b bd f0 fe ff ff 	mov    -0x110(%rbp),%rdi
    9a9c:	48 8b 45 a8          	mov    -0x58(%rbp),%rax
    9aa0:	48 89 85 00 ff ff ff 	mov    %rax,-0x100(%rbp)
    9aa7:	48 8b 45 b0          	mov    -0x50(%rbp),%rax
    9aab:	48 89 85 08 ff ff ff 	mov    %rax,-0xf8(%rbp)
    9ab2:	48 8b 45 b8          	mov    -0x48(%rbp),%rax
    9ab6:	48 89 85 10 ff ff ff 	mov    %rax,-0xf0(%rbp)
    9abd:	48 8d 85 00 ff ff ff 	lea    -0x100(%rbp),%rax
    9ac4:	48 8b 08             	mov    (%rax),%rcx
    9ac7:	48 89 0c 24          	mov    %rcx,(%rsp)
    9acb:	48 8b 48 08          	mov    0x8(%rax),%rcx
    9acf:	48 89 4c 24 08       	mov    %rcx,0x8(%rsp)
    9ad4:	48 8b 40 10          	mov    0x10(%rax),%rax
    9ad8:	48 89 44 24 10       	mov    %rax,0x10(%rsp)
    9add:	e8 2e 4b 00 00       	callq  e610 <_ZN6Vector3dotES_>
    9ae2:	f2 0f 11 85 d8 fe ff 	movsd  %xmm0,-0x128(%rbp)
    9ae9:	ff 
    9aea:	48 8d 7d a8          	lea    -0x58(%rbp),%rdi
    9aee:	e8 cd 4a 00 00       	callq  e5c0 <_ZN6Vector3magEv>
    9af3:	48 8b bd f0 fe ff ff 	mov    -0x110(%rbp),%rdi
    9afa:	f2 0f 11 85 d0 fe ff 	movsd  %xmm0,-0x130(%rbp)
    9b01:	ff 
    9b02:	e8 b9 4a 00 00       	callq  e5c0 <_ZN6Vector3magEv>
    9b07:	f2 0f 10 8d d0 fe ff 	movsd  -0x130(%rbp),%xmm1
    9b0e:	ff 
    9b0f:	0f 28 d0             	movaps %xmm0,%xmm2
    9b12:	f2 0f 10 85 d8 fe ff 	movsd  -0x128(%rbp),%xmm0
    9b19:	ff 
    9b1a:	f2 0f 59 ca          	mulsd  %xmm2,%xmm1
    9b1e:	f2 0f 5e c1          	divsd  %xmm1,%xmm0
    9b22:	f2 0f 11 85 18 ff ff 	movsd  %xmm0,-0xe8(%rbp)
    9b29:	ff 
    9b2a:	f6 45 87 01          	testb  $0x1,-0x79(%rbp)
    9b2e:	0f 85 4a 01 00 00    	jne    9c7e <_Z8getLightPdP8Autonoma6VectorS2_h+0x40e>
    9b34:	80 7d ef 00          	cmpb   $0x0,-0x11(%rbp)
    9b38:	0f 84 38 00 00 00    	je     9b76 <_Z8getLightPdP8Autonoma6VectorS2_h+0x306>
    9b3e:	0f 57 c0             	xorps  %xmm0,%xmm0
    9b41:	66 0f 2e 85 18 ff ff 	ucomisd -0xe8(%rbp),%xmm0
    9b48:	ff 
    9b49:	0f 86 27 00 00 00    	jbe    9b76 <_Z8getLightPdP8Autonoma6VectorS2_h+0x306>
    9b4f:	f2 0f 10 85 18 ff ff 	movsd  -0xe8(%rbp),%xmm0
    9b56:	ff 
    9b57:	66 48 0f 7e c0       	movq   %xmm0,%rax
    9b5c:	48 b9 00 00 00 00 00 	movabs $0x8000000000000000,%rcx
    9b63:	00 00 80 
    9b66:	48 31 c8             	xor    %rcx,%rax
    9b69:	66 48 0f 6e c0       	movq   %rax,%xmm0
    9b6e:	f2 0f 11 85 18 ff ff 	movsd  %xmm0,-0xe8(%rbp)
    9b75:	ff 
    9b76:	f2 0f 10 85 18 ff ff 	movsd  -0xe8(%rbp),%xmm0
    9b7d:	ff 
    9b7e:	0f 57 c9             	xorps  %xmm1,%xmm1
    9b81:	66 0f 2e c1          	ucomisd %xmm1,%xmm0
    9b85:	0f 86 ee 00 00 00    	jbe    9c79 <_Z8getLightPdP8Autonoma6VectorS2_h+0x409>
    9b8b:	f2 0f 10 85 18 ff ff 	movsd  -0xe8(%rbp),%xmm0
    9b92:	ff 
    9b93:	f2 0f 10 55 c0       	movsd  -0x40(%rbp),%xmm2
    9b98:	48 8b 45 f8          	mov    -0x8(%rbp),%rax
    9b9c:	f2 0f 10 08          	movsd  (%rax),%xmm1
    9ba0:	f2 0f 59 c2          	mulsd  %xmm2,%xmm0
    9ba4:	f2 0f 58 c1          	addsd  %xmm1,%xmm0
    9ba8:	f2 0f 11 00          	movsd  %xmm0,(%rax)
    9bac:	f2 0f 10 85 18 ff ff 	movsd  -0xe8(%rbp),%xmm0
    9bb3:	ff 
    9bb4:	f2 0f 10 55 c0       	movsd  -0x40(%rbp),%xmm2
    9bb9:	48 8b 45 f8          	mov    -0x8(%rbp),%rax
    9bbd:	f2 0f 10 48 08       	movsd  0x8(%rax),%xmm1
    9bc2:	f2 0f 59 c2          	mulsd  %xmm2,%xmm0
    9bc6:	f2 0f 58 c1          	addsd  %xmm1,%xmm0
    9bca:	f2 0f 11 40 08       	movsd  %xmm0,0x8(%rax)
    9bcf:	f2 0f 10 85 18 ff ff 	movsd  -0xe8(%rbp),%xmm0
    9bd6:	ff 
    9bd7:	f2 0f 10 55 c0       	movsd  -0x40(%rbp),%xmm2
    9bdc:	48 8b 45 f8          	mov    -0x8(%rbp),%rax
    9be0:	f2 0f 10 48 10       	movsd  0x10(%rax),%xmm1
    9be5:	f2 0f 59 c2          	mulsd  %xmm2,%xmm0
    9be9:	f2 0f 58 c1          	addsd  %xmm1,%xmm0
    9bed:	f2 0f 11 40 10       	movsd  %xmm0,0x10(%rax)
    9bf2:	48 8b 45 f8          	mov    -0x8(%rbp),%rax
    9bf6:	f2 0f 10 00          	movsd  (%rax),%xmm0
    9bfa:	f2 0f 10 0d 46 7d ff 	movsd  -0x82ba(%rip),%xmm1        # 1948 <_IO_stdin_used+0x48>
    9c01:	ff 
    9c02:	66 0f 2e c1          	ucomisd %xmm1,%xmm0
    9c06:	0f 86 10 00 00 00    	jbe    9c1c <_Z8getLightPdP8Autonoma6VectorS2_h+0x3ac>
    9c0c:	48 8b 45 f8          	mov    -0x8(%rbp),%rax
    9c10:	f2 0f 10 05 30 7d ff 	movsd  -0x82d0(%rip),%xmm0        # 1948 <_IO_stdin_used+0x48>
    9c17:	ff 
    9c18:	f2 0f 11 00          	movsd  %xmm0,(%rax)
    9c1c:	48 8b 45 f8          	mov    -0x8(%rbp),%rax
    9c20:	f2 0f 10 40 08       	movsd  0x8(%rax),%xmm0
    9c25:	f2 0f 10 0d 1b 7d ff 	movsd  -0x82e5(%rip),%xmm1        # 1948 <_IO_stdin_used+0x48>
    9c2c:	ff 
    9c2d:	66 0f 2e c1          	ucomisd %xmm1,%xmm0
    9c31:	0f 86 11 00 00 00    	jbe    9c48 <_Z8getLightPdP8Autonoma6VectorS2_h+0x3d8>
    9c37:	48 8b 45 f8          	mov    -0x8(%rbp),%rax
    9c3b:	f2 0f 10 05 05 7d ff 	movsd  -0x82fb(%rip),%xmm0        # 1948 <_IO_stdin_used+0x48>
    9c42:	ff 
    9c43:	f2 0f 11 40 08       	movsd  %xmm0,0x8(%rax)
    9c48:	48 8b 45 f8          	mov    -0x8(%rbp),%rax
    9c4c:	f2 0f 10 40 10       	movsd  0x10(%rax),%xmm0
    9c51:	f2 0f 10 0d ef 7c ff 	movsd  -0x8311(%rip),%xmm1        # 1948 <_IO_stdin_used+0x48>
    9c58:	ff 
    9c59:	66 0f 2e c1          	ucomisd %xmm1,%xmm0
    9c5d:	0f 86 11 00 00 00    	jbe    9c74 <_Z8getLightPdP8Autonoma6VectorS2_h+0x404>
    9c63:	48 8b 45 f8          	mov    -0x8(%rbp),%rax
    9c67:	f2 0f 10 05 d9 7c ff 	movsd  -0x8327(%rip),%xmm0        # 1948 <_IO_stdin_used+0x48>
    9c6e:	ff 
    9c6f:	f2 0f 11 40 10       	movsd  %xmm0,0x10(%rax)
    9c74:	e9 00 00 00 00       	jmpq   9c79 <_Z8getLightPdP8Autonoma6VectorS2_h+0x409>
    9c79:	e9 00 00 00 00       	jmpq   9c7e <_Z8getLightPdP8Autonoma6VectorS2_h+0x40e>
    9c7e:	48 8b 45 e0          	mov    -0x20(%rbp),%rax
    9c82:	48 8b 40 10          	mov    0x10(%rax),%rax
    9c86:	48 89 45 e0          	mov    %rax,-0x20(%rbp)
    9c8a:	e9 41 fc ff ff       	jmpq   98d0 <_Z8getLightPdP8Autonoma6VectorS2_h+0x60>
    9c8f:	48 81 c4 60 01 00 00 	add    $0x160,%rsp
    9c96:	5d                   	pop    %rbp
    9c97:	c3                   	retq   
    9c98:	cc                   	int3   
    9c99:	cc                   	int3   
    9c9a:	cc                   	int3   
    9c9b:	cc                   	int3   
    9c9c:	cc                   	int3   
    9c9d:	cc                   	int3   
    9c9e:	cc                   	int3   
    9c9f:	cc                   	int3   

0000000000009ca0 <_ZN5PlaneC1ERK6VectorP7Textureddddd>:
    9ca0:	55                   	push   %rbp
    9ca1:	48 89 e5             	mov    %rsp,%rbp
    9ca4:	48 83 ec 50          	sub    $0x50,%rsp
    9ca8:	48 89 7d f8          	mov    %rdi,-0x8(%rbp)
    9cac:	48 89 75 f0          	mov    %rsi,-0x10(%rbp)
    9cb0:	48 89 55 e8          	mov    %rdx,-0x18(%rbp)
    9cb4:	f2 0f 11 45 e0       	movsd  %xmm0,-0x20(%rbp)
    9cb9:	f2 0f 11 4d d8       	movsd  %xmm1,-0x28(%rbp)
    9cbe:	f2 0f 11 55 d0       	movsd  %xmm2,-0x30(%rbp)
    9cc3:	f2 0f 11 5d c8       	movsd  %xmm3,-0x38(%rbp)
    9cc8:	f2 0f 11 65 c0       	movsd  %xmm4,-0x40(%rbp)
    9ccd:	48 8b 7d f8          	mov    -0x8(%rbp),%rdi
    9cd1:	48 89 7d b8          	mov    %rdi,-0x48(%rbp)
    9cd5:	48 8b 75 f0          	mov    -0x10(%rbp),%rsi
    9cd9:	48 8b 55 e8          	mov    -0x18(%rbp),%rdx
    9cdd:	f2 0f 10 45 e0       	movsd  -0x20(%rbp),%xmm0
    9ce2:	f2 0f 10 4d d8       	movsd  -0x28(%rbp),%xmm1
    9ce7:	f2 0f 10 55 d0       	movsd  -0x30(%rbp),%xmm2
    9cec:	e8 cf 15 00 00       	callq  b2c0 <_ZN5ShapeC2ERK6VectorP7Textureddd>
    9cf1:	48 8b 7d b8          	mov    -0x48(%rbp),%rdi
    9cf5:	48 8d 05 7c 72 00 00 	lea    0x727c(%rip),%rax        # 10f78 <_ZTV5Plane>
    9cfc:	48 83 c0 10          	add    $0x10,%rax
    9d00:	48 89 07             	mov    %rax,(%rdi)
    9d03:	48 8b 45 f0          	mov    -0x10(%rbp),%rax
    9d07:	48 8b 08             	mov    (%rax),%rcx
    9d0a:	48 89 8f a8 00 00 00 	mov    %rcx,0xa8(%rdi)
    9d11:	48 8b 48 08          	mov    0x8(%rax),%rcx
    9d15:	48 89 8f b0 00 00 00 	mov    %rcx,0xb0(%rdi)
    9d1c:	48 8b 40 10          	mov    0x10(%rax),%rax
    9d20:	48 89 87 b8 00 00 00 	mov    %rax,0xb8(%rdi)
    9d27:	48 8b 45 f0          	mov    -0x10(%rbp),%rax
    9d2b:	48 8b 08             	mov    (%rax),%rcx
    9d2e:	48 89 8f c0 00 00 00 	mov    %rcx,0xc0(%rdi)
    9d35:	48 8b 48 08          	mov    0x8(%rax),%rcx
    9d39:	48 89 8f c8 00 00 00 	mov    %rcx,0xc8(%rdi)
    9d40:	48 8b 40 10          	mov    0x10(%rax),%rax
    9d44:	48 89 87 d0 00 00 00 	mov    %rax,0xd0(%rdi)
    9d4b:	48 8b 45 f0          	mov    -0x10(%rbp),%rax
    9d4f:	48 8b 08             	mov    (%rax),%rcx
    9d52:	48 89 8f d8 00 00 00 	mov    %rcx,0xd8(%rdi)
    9d59:	48 8b 48 08          	mov    0x8(%rax),%rcx
    9d5d:	48 89 8f e0 00 00 00 	mov    %rcx,0xe0(%rdi)
    9d64:	48 8b 40 10          	mov    0x10(%rax),%rax
    9d68:	48 89 87 e8 00 00 00 	mov    %rax,0xe8(%rdi)
    9d6f:	f2 0f 10 45 c8       	movsd  -0x38(%rbp),%xmm0
    9d74:	f2 0f 11 47 70       	movsd  %xmm0,0x70(%rdi)
    9d79:	f2 0f 10 45 c0       	movsd  -0x40(%rbp),%xmm0
    9d7e:	f2 0f 11 47 78       	movsd  %xmm0,0x78(%rdi)
    9d83:	f2 0f 10 47 08       	movsd  0x8(%rdi),%xmm0
    9d88:	f2 0f 10 4f 10       	movsd  0x10(%rdi),%xmm1
    9d8d:	f2 0f 10 57 18       	movsd  0x18(%rdi),%xmm2
    9d92:	48 8b 07             	mov    (%rdi),%rax
    9d95:	ff 50 30             	callq  *0x30(%rax)
    9d98:	48 8b 45 b8          	mov    -0x48(%rbp),%rax
    9d9c:	48 c7 80 a0 00 00 00 	movq   $0x0,0xa0(%rax)
    9da3:	00 00 00 00 
    9da7:	f2 0f 10 40 70       	movsd  0x70(%rax),%xmm0
    9dac:	f2 0f 11 80 80 00 00 	movsd  %xmm0,0x80(%rax)
    9db3:	00 
    9db4:	f2 0f 10 40 78       	movsd  0x78(%rax),%xmm0
    9db9:	f2 0f 11 80 88 00 00 	movsd  %xmm0,0x88(%rax)
    9dc0:	00 
    9dc1:	48 83 c4 50          	add    $0x50,%rsp
    9dc5:	5d                   	pop    %rbp
    9dc6:	c3                   	retq   
    9dc7:	66 0f 1f 84 00 00 00 	nopw   0x0(%rax,%rax,1)
    9dce:	00 00 

0000000000009dd0 <_ZN5Plane9setAnglesEddd>:
    9dd0:	55                   	push   %rbp
    9dd1:	48 89 e5             	mov    %rsp,%rbp
    9dd4:	48 83 ec 60          	sub    $0x60,%rsp
    9dd8:	48 89 7d f8          	mov    %rdi,-0x8(%rbp)
    9ddc:	f2 0f 11 45 f0       	movsd  %xmm0,-0x10(%rbp)
    9de1:	f2 0f 11 4d e8       	movsd  %xmm1,-0x18(%rbp)
    9de6:	f2 0f 11 55 e0       	movsd  %xmm2,-0x20(%rbp)
    9deb:	48 8b 45 f8          	mov    -0x8(%rbp),%rax
    9def:	48 89 45 c0          	mov    %rax,-0x40(%rbp)
    9df3:	f2 0f 10 45 f0       	movsd  -0x10(%rbp),%xmm0
    9df8:	f2 0f 11 40 08       	movsd  %xmm0,0x8(%rax)
    9dfd:	f2 0f 10 45 e8       	movsd  -0x18(%rbp),%xmm0
    9e02:	f2 0f 11 40 10       	movsd  %xmm0,0x10(%rax)
    9e07:	f2 0f 10 45 e0       	movsd  -0x20(%rbp),%xmm0
    9e0c:	f2 0f 11 40 18       	movsd  %xmm0,0x18(%rax)
    9e11:	f2 0f 10 40 08       	movsd  0x8(%rax),%xmm0
    9e16:	e8 45 5f 00 00       	callq  fd60 <cos@plt>
    9e1b:	48 8b 45 c0          	mov    -0x40(%rbp),%rax
    9e1f:	f2 0f 11 40 28       	movsd  %xmm0,0x28(%rax)
    9e24:	f2 0f 10 40 08       	movsd  0x8(%rax),%xmm0
    9e29:	e8 22 5f 00 00       	callq  fd50 <sin@plt>
    9e2e:	48 8b 45 c0          	mov    -0x40(%rbp),%rax
    9e32:	f2 0f 11 40 20       	movsd  %xmm0,0x20(%rax)
    9e37:	f2 0f 10 40 10       	movsd  0x10(%rax),%xmm0
    9e3c:	e8 1f 5f 00 00       	callq  fd60 <cos@plt>
    9e41:	48 8b 45 c0          	mov    -0x40(%rbp),%rax
    9e45:	f2 0f 11 40 38       	movsd  %xmm0,0x38(%rax)
    9e4a:	f2 0f 10 40 10       	movsd  0x10(%rax),%xmm0
    9e4f:	e8 fc 5e 00 00       	callq  fd50 <sin@plt>
    9e54:	48 8b 45 c0          	mov    -0x40(%rbp),%rax
    9e58:	f2 0f 11 40 30       	movsd  %xmm0,0x30(%rax)
    9e5d:	f2 0f 10 40 18       	movsd  0x18(%rax),%xmm0
    9e62:	e8 f9 5e 00 00       	callq  fd60 <cos@plt>
    9e67:	48 8b 45 c0          	mov    -0x40(%rbp),%rax
    9e6b:	f2 0f 11 40 48       	movsd  %xmm0,0x48(%rax)
    9e70:	f2 0f 10 40 18       	movsd  0x18(%rax),%xmm0
    9e75:	e8 d6 5e 00 00       	callq  fd50 <sin@plt>
    9e7a:	48 8b 45 c0          	mov    -0x40(%rbp),%rax
    9e7e:	f2 0f 11 40 40       	movsd  %xmm0,0x40(%rax)
    9e83:	f2 0f 10 40 20       	movsd  0x20(%rax),%xmm0
    9e88:	f2 0f 59 40 38       	mulsd  0x38(%rax),%xmm0
